
watchSeven.elf:     file format elf32-littlearm

Sections:
Idx Name          Size      VMA       LMA       File off  Algn
  0 .isr_vector   000000bc  08000000  08000000  00010000  2**0
                  CONTENTS, ALLOC, LOAD, READONLY, DATA
  1 .text         000033dc  080000bc  080000bc  000100bc  2**2
                  CONTENTS, ALLOC, LOAD, READONLY, CODE
  2 .rodata       000000ec  08003498  08003498  00013498  2**2
                  CONTENTS, ALLOC, LOAD, READONLY, DATA
  3 .ARM.extab    00000000  08003584  08003584  00020010  2**0
                  CONTENTS
  4 .ARM          00000008  08003584  08003584  00013584  2**2
                  CONTENTS, ALLOC, LOAD, READONLY, DATA
  5 .preinit_array 00000000  0800358c  0800358c  00020010  2**0
                  CONTENTS, ALLOC, LOAD, DATA
  6 .init_array   00000004  0800358c  0800358c  0001358c  2**2
                  CONTENTS, ALLOC, LOAD, DATA
  7 .fini_array   00000004  08003590  08003590  00013590  2**2
                  CONTENTS, ALLOC, LOAD, DATA
  8 .data         00000010  20000000  08003594  00020000  2**2
                  CONTENTS, ALLOC, LOAD, DATA
  9 .bss          00000318  20000010  080035a4  00020010  2**2
                  ALLOC
 10 ._user_heap_stack 00000600  20000328  080035a4  00020328  2**0
                  ALLOC
 11 .ARM.attributes 00000028  00000000  00000000  00020010  2**0
                  CONTENTS, READONLY
 12 .comment      00000053  00000000  00000000  00020038  2**0
                  CONTENTS, READONLY
 13 .debug_frame  000000f0  00000000  00000000  0002008c  2**2
                  CONTENTS, READONLY, DEBUGGING, OCTETS

Disassembly of section .text:

080000bc <__do_global_dtors_aux>:
 80000bc:	b510      	push	{r4, lr}
 80000be:	4c06      	ldr	r4, [pc, #24]	; (80000d8 <__do_global_dtors_aux+0x1c>)
 80000c0:	7823      	ldrb	r3, [r4, #0]
 80000c2:	2b00      	cmp	r3, #0
 80000c4:	d107      	bne.n	80000d6 <__do_global_dtors_aux+0x1a>
 80000c6:	4b05      	ldr	r3, [pc, #20]	; (80000dc <__do_global_dtors_aux+0x20>)
 80000c8:	2b00      	cmp	r3, #0
 80000ca:	d002      	beq.n	80000d2 <__do_global_dtors_aux+0x16>
 80000cc:	4804      	ldr	r0, [pc, #16]	; (80000e0 <__do_global_dtors_aux+0x24>)
 80000ce:	e000      	b.n	80000d2 <__do_global_dtors_aux+0x16>
 80000d0:	bf00      	nop
 80000d2:	2301      	movs	r3, #1
 80000d4:	7023      	strb	r3, [r4, #0]
 80000d6:	bd10      	pop	{r4, pc}
 80000d8:	20000010 	.word	0x20000010
 80000dc:	00000000 	.word	0x00000000
 80000e0:	08003480 	.word	0x08003480

080000e4 <frame_dummy>:
 80000e4:	4b04      	ldr	r3, [pc, #16]	; (80000f8 <frame_dummy+0x14>)
 80000e6:	b510      	push	{r4, lr}
 80000e8:	2b00      	cmp	r3, #0
 80000ea:	d003      	beq.n	80000f4 <frame_dummy+0x10>
 80000ec:	4903      	ldr	r1, [pc, #12]	; (80000fc <frame_dummy+0x18>)
 80000ee:	4804      	ldr	r0, [pc, #16]	; (8000100 <frame_dummy+0x1c>)
 80000f0:	e000      	b.n	80000f4 <frame_dummy+0x10>
 80000f2:	bf00      	nop
 80000f4:	bd10      	pop	{r4, pc}
 80000f6:	46c0      	nop			; (mov r8, r8)
 80000f8:	00000000 	.word	0x00000000
 80000fc:	20000014 	.word	0x20000014
 8000100:	08003480 	.word	0x08003480

08000104 <__gnu_thumb1_case_sqi>:
 8000104:	b402      	push	{r1}
 8000106:	4671      	mov	r1, lr
 8000108:	0849      	lsrs	r1, r1, #1
 800010a:	0049      	lsls	r1, r1, #1
 800010c:	5609      	ldrsb	r1, [r1, r0]
 800010e:	0049      	lsls	r1, r1, #1
 8000110:	448e      	add	lr, r1
 8000112:	bc02      	pop	{r1}
 8000114:	4770      	bx	lr
 8000116:	46c0      	nop			; (mov r8, r8)

08000118 <__gnu_thumb1_case_uqi>:
 8000118:	b402      	push	{r1}
 800011a:	4671      	mov	r1, lr
 800011c:	0849      	lsrs	r1, r1, #1
 800011e:	0049      	lsls	r1, r1, #1
 8000120:	5c09      	ldrb	r1, [r1, r0]
 8000122:	0049      	lsls	r1, r1, #1
 8000124:	448e      	add	lr, r1
 8000126:	bc02      	pop	{r1}
 8000128:	4770      	bx	lr
 800012a:	46c0      	nop			; (mov r8, r8)

0800012c <__gnu_thumb1_case_shi>:
 800012c:	b403      	push	{r0, r1}
 800012e:	4671      	mov	r1, lr
 8000130:	0849      	lsrs	r1, r1, #1
 8000132:	0040      	lsls	r0, r0, #1
 8000134:	0049      	lsls	r1, r1, #1
 8000136:	5e09      	ldrsh	r1, [r1, r0]
 8000138:	0049      	lsls	r1, r1, #1
 800013a:	448e      	add	lr, r1
 800013c:	bc03      	pop	{r0, r1}
 800013e:	4770      	bx	lr

08000140 <__udivsi3>:
 8000140:	2200      	movs	r2, #0
 8000142:	0843      	lsrs	r3, r0, #1
 8000144:	428b      	cmp	r3, r1
 8000146:	d374      	bcc.n	8000232 <__udivsi3+0xf2>
 8000148:	0903      	lsrs	r3, r0, #4
 800014a:	428b      	cmp	r3, r1
 800014c:	d35f      	bcc.n	800020e <__udivsi3+0xce>
 800014e:	0a03      	lsrs	r3, r0, #8
 8000150:	428b      	cmp	r3, r1
 8000152:	d344      	bcc.n	80001de <__udivsi3+0x9e>
 8000154:	0b03      	lsrs	r3, r0, #12
 8000156:	428b      	cmp	r3, r1
 8000158:	d328      	bcc.n	80001ac <__udivsi3+0x6c>
 800015a:	0c03      	lsrs	r3, r0, #16
 800015c:	428b      	cmp	r3, r1
 800015e:	d30d      	bcc.n	800017c <__udivsi3+0x3c>
 8000160:	22ff      	movs	r2, #255	; 0xff
 8000162:	0209      	lsls	r1, r1, #8
 8000164:	ba12      	rev	r2, r2
 8000166:	0c03      	lsrs	r3, r0, #16
 8000168:	428b      	cmp	r3, r1
 800016a:	d302      	bcc.n	8000172 <__udivsi3+0x32>
 800016c:	1212      	asrs	r2, r2, #8
 800016e:	0209      	lsls	r1, r1, #8
 8000170:	d065      	beq.n	800023e <__udivsi3+0xfe>
 8000172:	0b03      	lsrs	r3, r0, #12
 8000174:	428b      	cmp	r3, r1
 8000176:	d319      	bcc.n	80001ac <__udivsi3+0x6c>
 8000178:	e000      	b.n	800017c <__udivsi3+0x3c>
 800017a:	0a09      	lsrs	r1, r1, #8
 800017c:	0bc3      	lsrs	r3, r0, #15
 800017e:	428b      	cmp	r3, r1
 8000180:	d301      	bcc.n	8000186 <__udivsi3+0x46>
 8000182:	03cb      	lsls	r3, r1, #15
 8000184:	1ac0      	subs	r0, r0, r3
 8000186:	4152      	adcs	r2, r2
 8000188:	0b83      	lsrs	r3, r0, #14
 800018a:	428b      	cmp	r3, r1
 800018c:	d301      	bcc.n	8000192 <__udivsi3+0x52>
 800018e:	038b      	lsls	r3, r1, #14
 8000190:	1ac0      	subs	r0, r0, r3
 8000192:	4152      	adcs	r2, r2
 8000194:	0b43      	lsrs	r3, r0, #13
 8000196:	428b      	cmp	r3, r1
 8000198:	d301      	bcc.n	800019e <__udivsi3+0x5e>
 800019a:	034b      	lsls	r3, r1, #13
 800019c:	1ac0      	subs	r0, r0, r3
 800019e:	4152      	adcs	r2, r2
 80001a0:	0b03      	lsrs	r3, r0, #12
 80001a2:	428b      	cmp	r3, r1
 80001a4:	d301      	bcc.n	80001aa <__udivsi3+0x6a>
 80001a6:	030b      	lsls	r3, r1, #12
 80001a8:	1ac0      	subs	r0, r0, r3
 80001aa:	4152      	adcs	r2, r2
 80001ac:	0ac3      	lsrs	r3, r0, #11
 80001ae:	428b      	cmp	r3, r1
 80001b0:	d301      	bcc.n	80001b6 <__udivsi3+0x76>
 80001b2:	02cb      	lsls	r3, r1, #11
 80001b4:	1ac0      	subs	r0, r0, r3
 80001b6:	4152      	adcs	r2, r2
 80001b8:	0a83      	lsrs	r3, r0, #10
 80001ba:	428b      	cmp	r3, r1
 80001bc:	d301      	bcc.n	80001c2 <__udivsi3+0x82>
 80001be:	028b      	lsls	r3, r1, #10
 80001c0:	1ac0      	subs	r0, r0, r3
 80001c2:	4152      	adcs	r2, r2
 80001c4:	0a43      	lsrs	r3, r0, #9
 80001c6:	428b      	cmp	r3, r1
 80001c8:	d301      	bcc.n	80001ce <__udivsi3+0x8e>
 80001ca:	024b      	lsls	r3, r1, #9
 80001cc:	1ac0      	subs	r0, r0, r3
 80001ce:	4152      	adcs	r2, r2
 80001d0:	0a03      	lsrs	r3, r0, #8
 80001d2:	428b      	cmp	r3, r1
 80001d4:	d301      	bcc.n	80001da <__udivsi3+0x9a>
 80001d6:	020b      	lsls	r3, r1, #8
 80001d8:	1ac0      	subs	r0, r0, r3
 80001da:	4152      	adcs	r2, r2
 80001dc:	d2cd      	bcs.n	800017a <__udivsi3+0x3a>
 80001de:	09c3      	lsrs	r3, r0, #7
 80001e0:	428b      	cmp	r3, r1
 80001e2:	d301      	bcc.n	80001e8 <__udivsi3+0xa8>
 80001e4:	01cb      	lsls	r3, r1, #7
 80001e6:	1ac0      	subs	r0, r0, r3
 80001e8:	4152      	adcs	r2, r2
 80001ea:	0983      	lsrs	r3, r0, #6
 80001ec:	428b      	cmp	r3, r1
 80001ee:	d301      	bcc.n	80001f4 <__udivsi3+0xb4>
 80001f0:	018b      	lsls	r3, r1, #6
 80001f2:	1ac0      	subs	r0, r0, r3
 80001f4:	4152      	adcs	r2, r2
 80001f6:	0943      	lsrs	r3, r0, #5
 80001f8:	428b      	cmp	r3, r1
 80001fa:	d301      	bcc.n	8000200 <__udivsi3+0xc0>
 80001fc:	014b      	lsls	r3, r1, #5
 80001fe:	1ac0      	subs	r0, r0, r3
 8000200:	4152      	adcs	r2, r2
 8000202:	0903      	lsrs	r3, r0, #4
 8000204:	428b      	cmp	r3, r1
 8000206:	d301      	bcc.n	800020c <__udivsi3+0xcc>
 8000208:	010b      	lsls	r3, r1, #4
 800020a:	1ac0      	subs	r0, r0, r3
 800020c:	4152      	adcs	r2, r2
 800020e:	08c3      	lsrs	r3, r0, #3
 8000210:	428b      	cmp	r3, r1
 8000212:	d301      	bcc.n	8000218 <__udivsi3+0xd8>
 8000214:	00cb      	lsls	r3, r1, #3
 8000216:	1ac0      	subs	r0, r0, r3
 8000218:	4152      	adcs	r2, r2
 800021a:	0883      	lsrs	r3, r0, #2
 800021c:	428b      	cmp	r3, r1
 800021e:	d301      	bcc.n	8000224 <__udivsi3+0xe4>
 8000220:	008b      	lsls	r3, r1, #2
 8000222:	1ac0      	subs	r0, r0, r3
 8000224:	4152      	adcs	r2, r2
 8000226:	0843      	lsrs	r3, r0, #1
 8000228:	428b      	cmp	r3, r1
 800022a:	d301      	bcc.n	8000230 <__udivsi3+0xf0>
 800022c:	004b      	lsls	r3, r1, #1
 800022e:	1ac0      	subs	r0, r0, r3
 8000230:	4152      	adcs	r2, r2
 8000232:	1a41      	subs	r1, r0, r1
 8000234:	d200      	bcs.n	8000238 <__udivsi3+0xf8>
 8000236:	4601      	mov	r1, r0
 8000238:	4152      	adcs	r2, r2
 800023a:	4610      	mov	r0, r2
 800023c:	4770      	bx	lr
 800023e:	e7ff      	b.n	8000240 <__udivsi3+0x100>
 8000240:	b501      	push	{r0, lr}
 8000242:	2000      	movs	r0, #0
 8000244:	f000 f8f0 	bl	8000428 <__aeabi_idiv0>
 8000248:	bd02      	pop	{r1, pc}
 800024a:	46c0      	nop			; (mov r8, r8)

0800024c <__aeabi_uidivmod>:
 800024c:	2900      	cmp	r1, #0
 800024e:	d0f7      	beq.n	8000240 <__udivsi3+0x100>
 8000250:	e776      	b.n	8000140 <__udivsi3>
 8000252:	4770      	bx	lr

08000254 <__divsi3>:
 8000254:	4603      	mov	r3, r0
 8000256:	430b      	orrs	r3, r1
 8000258:	d47f      	bmi.n	800035a <__divsi3+0x106>
 800025a:	2200      	movs	r2, #0
 800025c:	0843      	lsrs	r3, r0, #1
 800025e:	428b      	cmp	r3, r1
 8000260:	d374      	bcc.n	800034c <__divsi3+0xf8>
 8000262:	0903      	lsrs	r3, r0, #4
 8000264:	428b      	cmp	r3, r1
 8000266:	d35f      	bcc.n	8000328 <__divsi3+0xd4>
 8000268:	0a03      	lsrs	r3, r0, #8
 800026a:	428b      	cmp	r3, r1
 800026c:	d344      	bcc.n	80002f8 <__divsi3+0xa4>
 800026e:	0b03      	lsrs	r3, r0, #12
 8000270:	428b      	cmp	r3, r1
 8000272:	d328      	bcc.n	80002c6 <__divsi3+0x72>
 8000274:	0c03      	lsrs	r3, r0, #16
 8000276:	428b      	cmp	r3, r1
 8000278:	d30d      	bcc.n	8000296 <__divsi3+0x42>
 800027a:	22ff      	movs	r2, #255	; 0xff
 800027c:	0209      	lsls	r1, r1, #8
 800027e:	ba12      	rev	r2, r2
 8000280:	0c03      	lsrs	r3, r0, #16
 8000282:	428b      	cmp	r3, r1
 8000284:	d302      	bcc.n	800028c <__divsi3+0x38>
 8000286:	1212      	asrs	r2, r2, #8
 8000288:	0209      	lsls	r1, r1, #8
 800028a:	d065      	beq.n	8000358 <__divsi3+0x104>
 800028c:	0b03      	lsrs	r3, r0, #12
 800028e:	428b      	cmp	r3, r1
 8000290:	d319      	bcc.n	80002c6 <__divsi3+0x72>
 8000292:	e000      	b.n	8000296 <__divsi3+0x42>
 8000294:	0a09      	lsrs	r1, r1, #8
 8000296:	0bc3      	lsrs	r3, r0, #15
 8000298:	428b      	cmp	r3, r1
 800029a:	d301      	bcc.n	80002a0 <__divsi3+0x4c>
 800029c:	03cb      	lsls	r3, r1, #15
 800029e:	1ac0      	subs	r0, r0, r3
 80002a0:	4152      	adcs	r2, r2
 80002a2:	0b83      	lsrs	r3, r0, #14
 80002a4:	428b      	cmp	r3, r1
 80002a6:	d301      	bcc.n	80002ac <__divsi3+0x58>
 80002a8:	038b      	lsls	r3, r1, #14
 80002aa:	1ac0      	subs	r0, r0, r3
 80002ac:	4152      	adcs	r2, r2
 80002ae:	0b43      	lsrs	r3, r0, #13
 80002b0:	428b      	cmp	r3, r1
 80002b2:	d301      	bcc.n	80002b8 <__divsi3+0x64>
 80002b4:	034b      	lsls	r3, r1, #13
 80002b6:	1ac0      	subs	r0, r0, r3
 80002b8:	4152      	adcs	r2, r2
 80002ba:	0b03      	lsrs	r3, r0, #12
 80002bc:	428b      	cmp	r3, r1
 80002be:	d301      	bcc.n	80002c4 <__divsi3+0x70>
 80002c0:	030b      	lsls	r3, r1, #12
 80002c2:	1ac0      	subs	r0, r0, r3
 80002c4:	4152      	adcs	r2, r2
 80002c6:	0ac3      	lsrs	r3, r0, #11
 80002c8:	428b      	cmp	r3, r1
 80002ca:	d301      	bcc.n	80002d0 <__divsi3+0x7c>
 80002cc:	02cb      	lsls	r3, r1, #11
 80002ce:	1ac0      	subs	r0, r0, r3
 80002d0:	4152      	adcs	r2, r2
 80002d2:	0a83      	lsrs	r3, r0, #10
 80002d4:	428b      	cmp	r3, r1
 80002d6:	d301      	bcc.n	80002dc <__divsi3+0x88>
 80002d8:	028b      	lsls	r3, r1, #10
 80002da:	1ac0      	subs	r0, r0, r3
 80002dc:	4152      	adcs	r2, r2
 80002de:	0a43      	lsrs	r3, r0, #9
 80002e0:	428b      	cmp	r3, r1
 80002e2:	d301      	bcc.n	80002e8 <__divsi3+0x94>
 80002e4:	024b      	lsls	r3, r1, #9
 80002e6:	1ac0      	subs	r0, r0, r3
 80002e8:	4152      	adcs	r2, r2
 80002ea:	0a03      	lsrs	r3, r0, #8
 80002ec:	428b      	cmp	r3, r1
 80002ee:	d301      	bcc.n	80002f4 <__divsi3+0xa0>
 80002f0:	020b      	lsls	r3, r1, #8
 80002f2:	1ac0      	subs	r0, r0, r3
 80002f4:	4152      	adcs	r2, r2
 80002f6:	d2cd      	bcs.n	8000294 <__divsi3+0x40>
 80002f8:	09c3      	lsrs	r3, r0, #7
 80002fa:	428b      	cmp	r3, r1
 80002fc:	d301      	bcc.n	8000302 <__divsi3+0xae>
 80002fe:	01cb      	lsls	r3, r1, #7
 8000300:	1ac0      	subs	r0, r0, r3
 8000302:	4152      	adcs	r2, r2
 8000304:	0983      	lsrs	r3, r0, #6
 8000306:	428b      	cmp	r3, r1
 8000308:	d301      	bcc.n	800030e <__divsi3+0xba>
 800030a:	018b      	lsls	r3, r1, #6
 800030c:	1ac0      	subs	r0, r0, r3
 800030e:	4152      	adcs	r2, r2
 8000310:	0943      	lsrs	r3, r0, #5
 8000312:	428b      	cmp	r3, r1
 8000314:	d301      	bcc.n	800031a <__divsi3+0xc6>
 8000316:	014b      	lsls	r3, r1, #5
 8000318:	1ac0      	subs	r0, r0, r3
 800031a:	4152      	adcs	r2, r2
 800031c:	0903      	lsrs	r3, r0, #4
 800031e:	428b      	cmp	r3, r1
 8000320:	d301      	bcc.n	8000326 <__divsi3+0xd2>
 8000322:	010b      	lsls	r3, r1, #4
 8000324:	1ac0      	subs	r0, r0, r3
 8000326:	4152      	adcs	r2, r2
 8000328:	08c3      	lsrs	r3, r0, #3
 800032a:	428b      	cmp	r3, r1
 800032c:	d301      	bcc.n	8000332 <__divsi3+0xde>
 800032e:	00cb      	lsls	r3, r1, #3
 8000330:	1ac0      	subs	r0, r0, r3
 8000332:	4152      	adcs	r2, r2
 8000334:	0883      	lsrs	r3, r0, #2
 8000336:	428b      	cmp	r3, r1
 8000338:	d301      	bcc.n	800033e <__divsi3+0xea>
 800033a:	008b      	lsls	r3, r1, #2
 800033c:	1ac0      	subs	r0, r0, r3
 800033e:	4152      	adcs	r2, r2
 8000340:	0843      	lsrs	r3, r0, #1
 8000342:	428b      	cmp	r3, r1
 8000344:	d301      	bcc.n	800034a <__divsi3+0xf6>
 8000346:	004b      	lsls	r3, r1, #1
 8000348:	1ac0      	subs	r0, r0, r3
 800034a:	4152      	adcs	r2, r2
 800034c:	1a41      	subs	r1, r0, r1
 800034e:	d200      	bcs.n	8000352 <__divsi3+0xfe>
 8000350:	4601      	mov	r1, r0
 8000352:	4152      	adcs	r2, r2
 8000354:	4610      	mov	r0, r2
 8000356:	4770      	bx	lr
 8000358:	e05d      	b.n	8000416 <__divsi3+0x1c2>
 800035a:	0fca      	lsrs	r2, r1, #31
 800035c:	d000      	beq.n	8000360 <__divsi3+0x10c>
 800035e:	4249      	negs	r1, r1
 8000360:	1003      	asrs	r3, r0, #32
 8000362:	d300      	bcc.n	8000366 <__divsi3+0x112>
 8000364:	4240      	negs	r0, r0
 8000366:	4053      	eors	r3, r2
 8000368:	2200      	movs	r2, #0
 800036a:	469c      	mov	ip, r3
 800036c:	0903      	lsrs	r3, r0, #4
 800036e:	428b      	cmp	r3, r1
 8000370:	d32d      	bcc.n	80003ce <__divsi3+0x17a>
 8000372:	0a03      	lsrs	r3, r0, #8
 8000374:	428b      	cmp	r3, r1
 8000376:	d312      	bcc.n	800039e <__divsi3+0x14a>
 8000378:	22fc      	movs	r2, #252	; 0xfc
 800037a:	0189      	lsls	r1, r1, #6
 800037c:	ba12      	rev	r2, r2
 800037e:	0a03      	lsrs	r3, r0, #8
 8000380:	428b      	cmp	r3, r1
 8000382:	d30c      	bcc.n	800039e <__divsi3+0x14a>
 8000384:	0189      	lsls	r1, r1, #6
 8000386:	1192      	asrs	r2, r2, #6
 8000388:	428b      	cmp	r3, r1
 800038a:	d308      	bcc.n	800039e <__divsi3+0x14a>
 800038c:	0189      	lsls	r1, r1, #6
 800038e:	1192      	asrs	r2, r2, #6
 8000390:	428b      	cmp	r3, r1
 8000392:	d304      	bcc.n	800039e <__divsi3+0x14a>
 8000394:	0189      	lsls	r1, r1, #6
 8000396:	d03a      	beq.n	800040e <__divsi3+0x1ba>
 8000398:	1192      	asrs	r2, r2, #6
 800039a:	e000      	b.n	800039e <__divsi3+0x14a>
 800039c:	0989      	lsrs	r1, r1, #6
 800039e:	09c3      	lsrs	r3, r0, #7
 80003a0:	428b      	cmp	r3, r1
 80003a2:	d301      	bcc.n	80003a8 <__divsi3+0x154>
 80003a4:	01cb      	lsls	r3, r1, #7
 80003a6:	1ac0      	subs	r0, r0, r3
 80003a8:	4152      	adcs	r2, r2
 80003aa:	0983      	lsrs	r3, r0, #6
 80003ac:	428b      	cmp	r3, r1
 80003ae:	d301      	bcc.n	80003b4 <__divsi3+0x160>
 80003b0:	018b      	lsls	r3, r1, #6
 80003b2:	1ac0      	subs	r0, r0, r3
 80003b4:	4152      	adcs	r2, r2
 80003b6:	0943      	lsrs	r3, r0, #5
 80003b8:	428b      	cmp	r3, r1
 80003ba:	d301      	bcc.n	80003c0 <__divsi3+0x16c>
 80003bc:	014b      	lsls	r3, r1, #5
 80003be:	1ac0      	subs	r0, r0, r3
 80003c0:	4152      	adcs	r2, r2
 80003c2:	0903      	lsrs	r3, r0, #4
 80003c4:	428b      	cmp	r3, r1
 80003c6:	d301      	bcc.n	80003cc <__divsi3+0x178>
 80003c8:	010b      	lsls	r3, r1, #4
 80003ca:	1ac0      	subs	r0, r0, r3
 80003cc:	4152      	adcs	r2, r2
 80003ce:	08c3      	lsrs	r3, r0, #3
 80003d0:	428b      	cmp	r3, r1
 80003d2:	d301      	bcc.n	80003d8 <__divsi3+0x184>
 80003d4:	00cb      	lsls	r3, r1, #3
 80003d6:	1ac0      	subs	r0, r0, r3
 80003d8:	4152      	adcs	r2, r2
 80003da:	0883      	lsrs	r3, r0, #2
 80003dc:	428b      	cmp	r3, r1
 80003de:	d301      	bcc.n	80003e4 <__divsi3+0x190>
 80003e0:	008b      	lsls	r3, r1, #2
 80003e2:	1ac0      	subs	r0, r0, r3
 80003e4:	4152      	adcs	r2, r2
 80003e6:	d2d9      	bcs.n	800039c <__divsi3+0x148>
 80003e8:	0843      	lsrs	r3, r0, #1
 80003ea:	428b      	cmp	r3, r1
 80003ec:	d301      	bcc.n	80003f2 <__divsi3+0x19e>
 80003ee:	004b      	lsls	r3, r1, #1
 80003f0:	1ac0      	subs	r0, r0, r3
 80003f2:	4152      	adcs	r2, r2
 80003f4:	1a41      	subs	r1, r0, r1
 80003f6:	d200      	bcs.n	80003fa <__divsi3+0x1a6>
 80003f8:	4601      	mov	r1, r0
 80003fa:	4663      	mov	r3, ip
 80003fc:	4152      	adcs	r2, r2
 80003fe:	105b      	asrs	r3, r3, #1
 8000400:	4610      	mov	r0, r2
 8000402:	d301      	bcc.n	8000408 <__divsi3+0x1b4>
 8000404:	4240      	negs	r0, r0
 8000406:	2b00      	cmp	r3, #0
 8000408:	d500      	bpl.n	800040c <__divsi3+0x1b8>
 800040a:	4249      	negs	r1, r1
 800040c:	4770      	bx	lr
 800040e:	4663      	mov	r3, ip
 8000410:	105b      	asrs	r3, r3, #1
 8000412:	d300      	bcc.n	8000416 <__divsi3+0x1c2>
 8000414:	4240      	negs	r0, r0
 8000416:	b501      	push	{r0, lr}
 8000418:	2000      	movs	r0, #0
 800041a:	f000 f805 	bl	8000428 <__aeabi_idiv0>
 800041e:	bd02      	pop	{r1, pc}

08000420 <__aeabi_idivmod>:
 8000420:	2900      	cmp	r1, #0
 8000422:	d0f8      	beq.n	8000416 <__divsi3+0x1c2>
 8000424:	e716      	b.n	8000254 <__divsi3>
 8000426:	4770      	bx	lr

08000428 <__aeabi_idiv0>:
 8000428:	4770      	bx	lr
 800042a:	46c0      	nop			; (mov r8, r8)

0800042c <__aeabi_uldivmod>:
 800042c:	2b00      	cmp	r3, #0
 800042e:	d111      	bne.n	8000454 <__aeabi_uldivmod+0x28>
 8000430:	2a00      	cmp	r2, #0
 8000432:	d10f      	bne.n	8000454 <__aeabi_uldivmod+0x28>
 8000434:	2900      	cmp	r1, #0
 8000436:	d100      	bne.n	800043a <__aeabi_uldivmod+0xe>
 8000438:	2800      	cmp	r0, #0
 800043a:	d002      	beq.n	8000442 <__aeabi_uldivmod+0x16>
 800043c:	2100      	movs	r1, #0
 800043e:	43c9      	mvns	r1, r1
 8000440:	1c08      	adds	r0, r1, #0
 8000442:	b407      	push	{r0, r1, r2}
 8000444:	4802      	ldr	r0, [pc, #8]	; (8000450 <__aeabi_uldivmod+0x24>)
 8000446:	a102      	add	r1, pc, #8	; (adr r1, 8000450 <__aeabi_uldivmod+0x24>)
 8000448:	1840      	adds	r0, r0, r1
 800044a:	9002      	str	r0, [sp, #8]
 800044c:	bd03      	pop	{r0, r1, pc}
 800044e:	46c0      	nop			; (mov r8, r8)
 8000450:	ffffffd9 	.word	0xffffffd9
 8000454:	b403      	push	{r0, r1}
 8000456:	4668      	mov	r0, sp
 8000458:	b501      	push	{r0, lr}
 800045a:	9802      	ldr	r0, [sp, #8]
 800045c:	f000 f806 	bl	800046c <__udivmoddi4>
 8000460:	9b01      	ldr	r3, [sp, #4]
 8000462:	469e      	mov	lr, r3
 8000464:	b002      	add	sp, #8
 8000466:	bc0c      	pop	{r2, r3}
 8000468:	4770      	bx	lr
 800046a:	46c0      	nop			; (mov r8, r8)

0800046c <__udivmoddi4>:
 800046c:	b5f0      	push	{r4, r5, r6, r7, lr}
 800046e:	4657      	mov	r7, sl
 8000470:	464e      	mov	r6, r9
 8000472:	4645      	mov	r5, r8
 8000474:	46de      	mov	lr, fp
 8000476:	b5e0      	push	{r5, r6, r7, lr}
 8000478:	0004      	movs	r4, r0
 800047a:	000d      	movs	r5, r1
 800047c:	4692      	mov	sl, r2
 800047e:	4699      	mov	r9, r3
 8000480:	b083      	sub	sp, #12
 8000482:	428b      	cmp	r3, r1
 8000484:	d830      	bhi.n	80004e8 <__udivmoddi4+0x7c>
 8000486:	d02d      	beq.n	80004e4 <__udivmoddi4+0x78>
 8000488:	4649      	mov	r1, r9
 800048a:	4650      	mov	r0, sl
 800048c:	f000 f8ba 	bl	8000604 <__clzdi2>
 8000490:	0029      	movs	r1, r5
 8000492:	0006      	movs	r6, r0
 8000494:	0020      	movs	r0, r4
 8000496:	f000 f8b5 	bl	8000604 <__clzdi2>
 800049a:	1a33      	subs	r3, r6, r0
 800049c:	4698      	mov	r8, r3
 800049e:	3b20      	subs	r3, #32
 80004a0:	469b      	mov	fp, r3
 80004a2:	d433      	bmi.n	800050c <__udivmoddi4+0xa0>
 80004a4:	465a      	mov	r2, fp
 80004a6:	4653      	mov	r3, sl
 80004a8:	4093      	lsls	r3, r2
 80004aa:	4642      	mov	r2, r8
 80004ac:	001f      	movs	r7, r3
 80004ae:	4653      	mov	r3, sl
 80004b0:	4093      	lsls	r3, r2
 80004b2:	001e      	movs	r6, r3
 80004b4:	42af      	cmp	r7, r5
 80004b6:	d83a      	bhi.n	800052e <__udivmoddi4+0xc2>
 80004b8:	42af      	cmp	r7, r5
 80004ba:	d100      	bne.n	80004be <__udivmoddi4+0x52>
 80004bc:	e078      	b.n	80005b0 <__udivmoddi4+0x144>
 80004be:	465b      	mov	r3, fp
 80004c0:	1ba4      	subs	r4, r4, r6
 80004c2:	41bd      	sbcs	r5, r7
 80004c4:	2b00      	cmp	r3, #0
 80004c6:	da00      	bge.n	80004ca <__udivmoddi4+0x5e>
 80004c8:	e075      	b.n	80005b6 <__udivmoddi4+0x14a>
 80004ca:	2200      	movs	r2, #0
 80004cc:	2300      	movs	r3, #0
 80004ce:	9200      	str	r2, [sp, #0]
 80004d0:	9301      	str	r3, [sp, #4]
 80004d2:	2301      	movs	r3, #1
 80004d4:	465a      	mov	r2, fp
 80004d6:	4093      	lsls	r3, r2
 80004d8:	9301      	str	r3, [sp, #4]
 80004da:	2301      	movs	r3, #1
 80004dc:	4642      	mov	r2, r8
 80004de:	4093      	lsls	r3, r2
 80004e0:	9300      	str	r3, [sp, #0]
 80004e2:	e028      	b.n	8000536 <__udivmoddi4+0xca>
 80004e4:	4282      	cmp	r2, r0
 80004e6:	d9cf      	bls.n	8000488 <__udivmoddi4+0x1c>
 80004e8:	2200      	movs	r2, #0
 80004ea:	2300      	movs	r3, #0
 80004ec:	9200      	str	r2, [sp, #0]
 80004ee:	9301      	str	r3, [sp, #4]
 80004f0:	9b0c      	ldr	r3, [sp, #48]	; 0x30
 80004f2:	2b00      	cmp	r3, #0
 80004f4:	d001      	beq.n	80004fa <__udivmoddi4+0x8e>
 80004f6:	601c      	str	r4, [r3, #0]
 80004f8:	605d      	str	r5, [r3, #4]
 80004fa:	9800      	ldr	r0, [sp, #0]
 80004fc:	9901      	ldr	r1, [sp, #4]
 80004fe:	b003      	add	sp, #12
 8000500:	bcf0      	pop	{r4, r5, r6, r7}
 8000502:	46bb      	mov	fp, r7
 8000504:	46b2      	mov	sl, r6
 8000506:	46a9      	mov	r9, r5
 8000508:	46a0      	mov	r8, r4
 800050a:	bdf0      	pop	{r4, r5, r6, r7, pc}
 800050c:	4642      	mov	r2, r8
 800050e:	2320      	movs	r3, #32
 8000510:	1a9b      	subs	r3, r3, r2
 8000512:	4652      	mov	r2, sl
 8000514:	40da      	lsrs	r2, r3
 8000516:	4641      	mov	r1, r8
 8000518:	0013      	movs	r3, r2
 800051a:	464a      	mov	r2, r9
 800051c:	408a      	lsls	r2, r1
 800051e:	0017      	movs	r7, r2
 8000520:	4642      	mov	r2, r8
 8000522:	431f      	orrs	r7, r3
 8000524:	4653      	mov	r3, sl
 8000526:	4093      	lsls	r3, r2
 8000528:	001e      	movs	r6, r3
 800052a:	42af      	cmp	r7, r5
 800052c:	d9c4      	bls.n	80004b8 <__udivmoddi4+0x4c>
 800052e:	2200      	movs	r2, #0
 8000530:	2300      	movs	r3, #0
 8000532:	9200      	str	r2, [sp, #0]
 8000534:	9301      	str	r3, [sp, #4]
 8000536:	4643      	mov	r3, r8
 8000538:	2b00      	cmp	r3, #0
 800053a:	d0d9      	beq.n	80004f0 <__udivmoddi4+0x84>
 800053c:	07fb      	lsls	r3, r7, #31
 800053e:	0872      	lsrs	r2, r6, #1
 8000540:	431a      	orrs	r2, r3
 8000542:	4646      	mov	r6, r8
 8000544:	087b      	lsrs	r3, r7, #1
 8000546:	e00e      	b.n	8000566 <__udivmoddi4+0xfa>
 8000548:	42ab      	cmp	r3, r5
 800054a:	d101      	bne.n	8000550 <__udivmoddi4+0xe4>
 800054c:	42a2      	cmp	r2, r4
 800054e:	d80c      	bhi.n	800056a <__udivmoddi4+0xfe>
 8000550:	1aa4      	subs	r4, r4, r2
 8000552:	419d      	sbcs	r5, r3
 8000554:	2001      	movs	r0, #1
 8000556:	1924      	adds	r4, r4, r4
 8000558:	416d      	adcs	r5, r5
 800055a:	2100      	movs	r1, #0
 800055c:	3e01      	subs	r6, #1
 800055e:	1824      	adds	r4, r4, r0
 8000560:	414d      	adcs	r5, r1
 8000562:	2e00      	cmp	r6, #0
 8000564:	d006      	beq.n	8000574 <__udivmoddi4+0x108>
 8000566:	42ab      	cmp	r3, r5
 8000568:	d9ee      	bls.n	8000548 <__udivmoddi4+0xdc>
 800056a:	3e01      	subs	r6, #1
 800056c:	1924      	adds	r4, r4, r4
 800056e:	416d      	adcs	r5, r5
 8000570:	2e00      	cmp	r6, #0
 8000572:	d1f8      	bne.n	8000566 <__udivmoddi4+0xfa>
 8000574:	9800      	ldr	r0, [sp, #0]
 8000576:	9901      	ldr	r1, [sp, #4]
 8000578:	465b      	mov	r3, fp
 800057a:	1900      	adds	r0, r0, r4
 800057c:	4169      	adcs	r1, r5
 800057e:	2b00      	cmp	r3, #0
 8000580:	db24      	blt.n	80005cc <__udivmoddi4+0x160>
 8000582:	002b      	movs	r3, r5
 8000584:	465a      	mov	r2, fp
 8000586:	4644      	mov	r4, r8
 8000588:	40d3      	lsrs	r3, r2
 800058a:	002a      	movs	r2, r5
 800058c:	40e2      	lsrs	r2, r4
 800058e:	001c      	movs	r4, r3
 8000590:	465b      	mov	r3, fp
 8000592:	0015      	movs	r5, r2
 8000594:	2b00      	cmp	r3, #0
 8000596:	db2a      	blt.n	80005ee <__udivmoddi4+0x182>
 8000598:	0026      	movs	r6, r4
 800059a:	409e      	lsls	r6, r3
 800059c:	0033      	movs	r3, r6
 800059e:	0026      	movs	r6, r4
 80005a0:	4647      	mov	r7, r8
 80005a2:	40be      	lsls	r6, r7
 80005a4:	0032      	movs	r2, r6
 80005a6:	1a80      	subs	r0, r0, r2
 80005a8:	4199      	sbcs	r1, r3
 80005aa:	9000      	str	r0, [sp, #0]
 80005ac:	9101      	str	r1, [sp, #4]
 80005ae:	e79f      	b.n	80004f0 <__udivmoddi4+0x84>
 80005b0:	42a3      	cmp	r3, r4
 80005b2:	d8bc      	bhi.n	800052e <__udivmoddi4+0xc2>
 80005b4:	e783      	b.n	80004be <__udivmoddi4+0x52>
 80005b6:	4642      	mov	r2, r8
 80005b8:	2320      	movs	r3, #32
 80005ba:	2100      	movs	r1, #0
 80005bc:	1a9b      	subs	r3, r3, r2
 80005be:	2200      	movs	r2, #0
 80005c0:	9100      	str	r1, [sp, #0]
 80005c2:	9201      	str	r2, [sp, #4]
 80005c4:	2201      	movs	r2, #1
 80005c6:	40da      	lsrs	r2, r3
 80005c8:	9201      	str	r2, [sp, #4]
 80005ca:	e786      	b.n	80004da <__udivmoddi4+0x6e>
 80005cc:	4642      	mov	r2, r8
 80005ce:	2320      	movs	r3, #32
 80005d0:	1a9b      	subs	r3, r3, r2
 80005d2:	002a      	movs	r2, r5
 80005d4:	4646      	mov	r6, r8
 80005d6:	409a      	lsls	r2, r3
 80005d8:	0023      	movs	r3, r4
 80005da:	40f3      	lsrs	r3, r6
 80005dc:	4644      	mov	r4, r8
 80005de:	4313      	orrs	r3, r2
 80005e0:	002a      	movs	r2, r5
 80005e2:	40e2      	lsrs	r2, r4
 80005e4:	001c      	movs	r4, r3
 80005e6:	465b      	mov	r3, fp
 80005e8:	0015      	movs	r5, r2
 80005ea:	2b00      	cmp	r3, #0
 80005ec:	dad4      	bge.n	8000598 <__udivmoddi4+0x12c>
 80005ee:	4642      	mov	r2, r8
 80005f0:	002f      	movs	r7, r5
 80005f2:	2320      	movs	r3, #32
 80005f4:	0026      	movs	r6, r4
 80005f6:	4097      	lsls	r7, r2
 80005f8:	1a9b      	subs	r3, r3, r2
 80005fa:	40de      	lsrs	r6, r3
 80005fc:	003b      	movs	r3, r7
 80005fe:	4333      	orrs	r3, r6
 8000600:	e7cd      	b.n	800059e <__udivmoddi4+0x132>
 8000602:	46c0      	nop			; (mov r8, r8)

08000604 <__clzdi2>:
 8000604:	b510      	push	{r4, lr}
 8000606:	2900      	cmp	r1, #0
 8000608:	d103      	bne.n	8000612 <__clzdi2+0xe>
 800060a:	f000 f807 	bl	800061c <__clzsi2>
 800060e:	3020      	adds	r0, #32
 8000610:	e002      	b.n	8000618 <__clzdi2+0x14>
 8000612:	1c08      	adds	r0, r1, #0
 8000614:	f000 f802 	bl	800061c <__clzsi2>
 8000618:	bd10      	pop	{r4, pc}
 800061a:	46c0      	nop			; (mov r8, r8)

0800061c <__clzsi2>:
 800061c:	211c      	movs	r1, #28
 800061e:	2301      	movs	r3, #1
 8000620:	041b      	lsls	r3, r3, #16
 8000622:	4298      	cmp	r0, r3
 8000624:	d301      	bcc.n	800062a <__clzsi2+0xe>
 8000626:	0c00      	lsrs	r0, r0, #16
 8000628:	3910      	subs	r1, #16
 800062a:	0a1b      	lsrs	r3, r3, #8
 800062c:	4298      	cmp	r0, r3
 800062e:	d301      	bcc.n	8000634 <__clzsi2+0x18>
 8000630:	0a00      	lsrs	r0, r0, #8
 8000632:	3908      	subs	r1, #8
 8000634:	091b      	lsrs	r3, r3, #4
 8000636:	4298      	cmp	r0, r3
 8000638:	d301      	bcc.n	800063e <__clzsi2+0x22>
 800063a:	0900      	lsrs	r0, r0, #4
 800063c:	3904      	subs	r1, #4
 800063e:	a202      	add	r2, pc, #8	; (adr r2, 8000648 <__clzsi2+0x2c>)
 8000640:	5c10      	ldrb	r0, [r2, r0]
 8000642:	1840      	adds	r0, r0, r1
 8000644:	4770      	bx	lr
 8000646:	46c0      	nop			; (mov r8, r8)
 8000648:	02020304 	.word	0x02020304
 800064c:	01010101 	.word	0x01010101
	...

08000658 <HAL_InitTick>:
 8000658:	b570      	push	{r4, r5, r6, lr}
 800065a:	4b10      	ldr	r3, [pc, #64]	; (800069c <HAL_InitTick+0x44>)
 800065c:	0005      	movs	r5, r0
 800065e:	7819      	ldrb	r1, [r3, #0]
 8000660:	2900      	cmp	r1, #0
 8000662:	d101      	bne.n	8000668 <HAL_InitTick+0x10>
 8000664:	2001      	movs	r0, #1
 8000666:	bd70      	pop	{r4, r5, r6, pc}
 8000668:	20fa      	movs	r0, #250	; 0xfa
 800066a:	0080      	lsls	r0, r0, #2
 800066c:	f7ff fd68 	bl	8000140 <__udivsi3>
 8000670:	4b0b      	ldr	r3, [pc, #44]	; (80006a0 <HAL_InitTick+0x48>)
 8000672:	0001      	movs	r1, r0
 8000674:	6818      	ldr	r0, [r3, #0]
 8000676:	f7ff fd63 	bl	8000140 <__udivsi3>
 800067a:	f000 faf1 	bl	8000c60 <HAL_SYSTICK_Config>
 800067e:	1e04      	subs	r4, r0, #0
 8000680:	d1f0      	bne.n	8000664 <HAL_InitTick+0xc>
 8000682:	2d03      	cmp	r5, #3
 8000684:	d8ee      	bhi.n	8000664 <HAL_InitTick+0xc>
 8000686:	0002      	movs	r2, r0
 8000688:	2001      	movs	r0, #1
 800068a:	0029      	movs	r1, r5
 800068c:	4240      	negs	r0, r0
 800068e:	f000 fab1 	bl	8000bf4 <HAL_NVIC_SetPriority>
 8000692:	4b04      	ldr	r3, [pc, #16]	; (80006a4 <HAL_InitTick+0x4c>)
 8000694:	0020      	movs	r0, r4
 8000696:	601d      	str	r5, [r3, #0]
 8000698:	e7e5      	b.n	8000666 <HAL_InitTick+0xe>
 800069a:	46c0      	nop			; (mov r8, r8)
 800069c:	20000000 	.word	0x20000000
 80006a0:	2000000c 	.word	0x2000000c
 80006a4:	20000004 	.word	0x20000004

080006a8 <HAL_Init>:
 80006a8:	2380      	movs	r3, #128	; 0x80
 80006aa:	4a08      	ldr	r2, [pc, #32]	; (80006cc <HAL_Init+0x24>)
 80006ac:	005b      	lsls	r3, r3, #1
 80006ae:	6811      	ldr	r1, [r2, #0]
 80006b0:	b510      	push	{r4, lr}
 80006b2:	430b      	orrs	r3, r1
 80006b4:	2003      	movs	r0, #3
 80006b6:	6013      	str	r3, [r2, #0]
 80006b8:	f7ff ffce 	bl	8000658 <HAL_InitTick>
 80006bc:	1e04      	subs	r4, r0, #0
 80006be:	d103      	bne.n	80006c8 <HAL_Init+0x20>
 80006c0:	f002 fd3c 	bl	800313c <HAL_MspInit>
 80006c4:	0020      	movs	r0, r4
 80006c6:	bd10      	pop	{r4, pc}
 80006c8:	2401      	movs	r4, #1
 80006ca:	e7fb      	b.n	80006c4 <HAL_Init+0x1c>
 80006cc:	40022000 	.word	0x40022000

080006d0 <HAL_IncTick>:
 80006d0:	4a03      	ldr	r2, [pc, #12]	; (80006e0 <HAL_IncTick+0x10>)
 80006d2:	4b04      	ldr	r3, [pc, #16]	; (80006e4 <HAL_IncTick+0x14>)
 80006d4:	6811      	ldr	r1, [r2, #0]
 80006d6:	781b      	ldrb	r3, [r3, #0]
 80006d8:	185b      	adds	r3, r3, r1
 80006da:	6013      	str	r3, [r2, #0]
 80006dc:	4770      	bx	lr
 80006de:	46c0      	nop			; (mov r8, r8)
 80006e0:	2000002c 	.word	0x2000002c
 80006e4:	20000000 	.word	0x20000000

080006e8 <HAL_GetTick>:
 80006e8:	4b01      	ldr	r3, [pc, #4]	; (80006f0 <HAL_GetTick+0x8>)
 80006ea:	6818      	ldr	r0, [r3, #0]
 80006ec:	4770      	bx	lr
 80006ee:	46c0      	nop			; (mov r8, r8)
 80006f0:	2000002c 	.word	0x2000002c

080006f4 <HAL_Delay>:
 80006f4:	b570      	push	{r4, r5, r6, lr}
 80006f6:	0004      	movs	r4, r0
 80006f8:	f7ff fff6 	bl	80006e8 <HAL_GetTick>
 80006fc:	0005      	movs	r5, r0
 80006fe:	1c63      	adds	r3, r4, #1
 8000700:	d002      	beq.n	8000708 <HAL_Delay+0x14>
 8000702:	4b04      	ldr	r3, [pc, #16]	; (8000714 <HAL_Delay+0x20>)
 8000704:	781b      	ldrb	r3, [r3, #0]
 8000706:	18e4      	adds	r4, r4, r3
 8000708:	f7ff ffee 	bl	80006e8 <HAL_GetTick>
 800070c:	1b40      	subs	r0, r0, r5
 800070e:	42a0      	cmp	r0, r4
 8000710:	d3fa      	bcc.n	8000708 <HAL_Delay+0x14>
 8000712:	bd70      	pop	{r4, r5, r6, pc}
 8000714:	20000000 	.word	0x20000000

08000718 <HAL_SYSCFG_StrobeDBattpinsConfig>:
 8000718:	4a03      	ldr	r2, [pc, #12]	; (8000728 <HAL_SYSCFG_StrobeDBattpinsConfig+0x10>)
 800071a:	4904      	ldr	r1, [pc, #16]	; (800072c <HAL_SYSCFG_StrobeDBattpinsConfig+0x14>)
 800071c:	6813      	ldr	r3, [r2, #0]
 800071e:	400b      	ands	r3, r1
 8000720:	4303      	orrs	r3, r0
 8000722:	6013      	str	r3, [r2, #0]
 8000724:	4770      	bx	lr
 8000726:	46c0      	nop			; (mov r8, r8)
 8000728:	40010000 	.word	0x40010000
 800072c:	fffff9ff 	.word	0xfffff9ff

08000730 <LL_ADC_REG_IsConversionOngoing>:
 8000730:	6880      	ldr	r0, [r0, #8]
 8000732:	0740      	lsls	r0, r0, #29
 8000734:	0fc0      	lsrs	r0, r0, #31
 8000736:	4770      	bx	lr

08000738 <HAL_ADC_Init>:
 8000738:	2300      	movs	r3, #0
 800073a:	b5f0      	push	{r4, r5, r6, r7, lr}
 800073c:	b087      	sub	sp, #28
 800073e:	9305      	str	r3, [sp, #20]
 8000740:	3301      	adds	r3, #1
 8000742:	1e04      	subs	r4, r0, #0
 8000744:	9301      	str	r3, [sp, #4]
 8000746:	d100      	bne.n	800074a <HAL_ADC_Init+0x12>
 8000748:	e0c1      	b.n	80008ce <HAL_ADC_Init+0x196>
 800074a:	6d85      	ldr	r5, [r0, #88]	; 0x58
 800074c:	2d00      	cmp	r5, #0
 800074e:	d105      	bne.n	800075c <HAL_ADC_Init+0x24>
 8000750:	f002 fd0e 	bl	8003170 <HAL_ADC_MspInit>
 8000754:	0023      	movs	r3, r4
 8000756:	3354      	adds	r3, #84	; 0x54
 8000758:	65e5      	str	r5, [r4, #92]	; 0x5c
 800075a:	701d      	strb	r5, [r3, #0]
 800075c:	2380      	movs	r3, #128	; 0x80
 800075e:	6826      	ldr	r6, [r4, #0]
 8000760:	055b      	lsls	r3, r3, #21
 8000762:	68b2      	ldr	r2, [r6, #8]
 8000764:	421a      	tst	r2, r3
 8000766:	d100      	bne.n	800076a <HAL_ADC_Init+0x32>
 8000768:	e0b4      	b.n	80008d4 <HAL_ADC_Init+0x19c>
 800076a:	2200      	movs	r2, #0
 800076c:	68b3      	ldr	r3, [r6, #8]
 800076e:	9201      	str	r2, [sp, #4]
 8000770:	00db      	lsls	r3, r3, #3
 8000772:	d408      	bmi.n	8000786 <HAL_ADC_Init+0x4e>
 8000774:	2310      	movs	r3, #16
 8000776:	2501      	movs	r5, #1
 8000778:	6da2      	ldr	r2, [r4, #88]	; 0x58
 800077a:	9501      	str	r5, [sp, #4]
 800077c:	4313      	orrs	r3, r2
 800077e:	65a3      	str	r3, [r4, #88]	; 0x58
 8000780:	6de3      	ldr	r3, [r4, #92]	; 0x5c
 8000782:	432b      	orrs	r3, r5
 8000784:	65e3      	str	r3, [r4, #92]	; 0x5c
 8000786:	0030      	movs	r0, r6
 8000788:	f7ff ffd2 	bl	8000730 <LL_ADC_REG_IsConversionOngoing>
 800078c:	2310      	movs	r3, #16
 800078e:	6da2      	ldr	r2, [r4, #88]	; 0x58
 8000790:	401a      	ands	r2, r3
 8000792:	4310      	orrs	r0, r2
 8000794:	d000      	beq.n	8000798 <HAL_ADC_Init+0x60>
 8000796:	e0ec      	b.n	8000972 <HAL_ADC_Init+0x23a>
 8000798:	6da3      	ldr	r3, [r4, #88]	; 0x58
 800079a:	4a79      	ldr	r2, [pc, #484]	; (8000980 <HAL_ADC_Init+0x248>)
 800079c:	0001      	movs	r1, r0
 800079e:	401a      	ands	r2, r3
 80007a0:	2302      	movs	r3, #2
 80007a2:	4313      	orrs	r3, r2
 80007a4:	65a3      	str	r3, [r4, #88]	; 0x58
 80007a6:	6823      	ldr	r3, [r4, #0]
 80007a8:	689a      	ldr	r2, [r3, #8]
 80007aa:	07d2      	lsls	r2, r2, #31
 80007ac:	d431      	bmi.n	8000812 <HAL_ADC_Init+0xda>
 80007ae:	0026      	movs	r6, r4
 80007b0:	68da      	ldr	r2, [r3, #12]
 80007b2:	3118      	adds	r1, #24
 80007b4:	438a      	bics	r2, r1
 80007b6:	68a1      	ldr	r1, [r4, #8]
 80007b8:	363c      	adds	r6, #60	; 0x3c
 80007ba:	430a      	orrs	r2, r1
 80007bc:	60da      	str	r2, [r3, #12]
 80007be:	6862      	ldr	r2, [r4, #4]
 80007c0:	6ce1      	ldr	r1, [r4, #76]	; 0x4c
 80007c2:	7835      	ldrb	r5, [r6, #0]
 80007c4:	0f97      	lsrs	r7, r2, #30
 80007c6:	07bf      	lsls	r7, r7, #30
 80007c8:	4339      	orrs	r1, r7
 80007ca:	9502      	str	r5, [sp, #8]
 80007cc:	2d01      	cmp	r5, #1
 80007ce:	d108      	bne.n	80007e2 <HAL_ADC_Init+0xaa>
 80007d0:	6c25      	ldr	r5, [r4, #64]	; 0x40
 80007d2:	6c66      	ldr	r6, [r4, #68]	; 0x44
 80007d4:	4335      	orrs	r5, r6
 80007d6:	4329      	orrs	r1, r5
 80007d8:	6ca5      	ldr	r5, [r4, #72]	; 0x48
 80007da:	4329      	orrs	r1, r5
 80007dc:	9d02      	ldr	r5, [sp, #8]
 80007de:	4339      	orrs	r1, r7
 80007e0:	4329      	orrs	r1, r5
 80007e2:	691e      	ldr	r6, [r3, #16]
 80007e4:	4f67      	ldr	r7, [pc, #412]	; (8000984 <HAL_ADC_Init+0x24c>)
 80007e6:	403e      	ands	r6, r7
 80007e8:	2780      	movs	r7, #128	; 0x80
 80007ea:	430e      	orrs	r6, r1
 80007ec:	611e      	str	r6, [r3, #16]
 80007ee:	0056      	lsls	r6, r2, #1
 80007f0:	0876      	lsrs	r6, r6, #1
 80007f2:	05ff      	lsls	r7, r7, #23
 80007f4:	42be      	cmp	r6, r7
 80007f6:	d00c      	beq.n	8000812 <HAL_ADC_Init+0xda>
 80007f8:	2680      	movs	r6, #128	; 0x80
 80007fa:	0636      	lsls	r6, r6, #24
 80007fc:	42b2      	cmp	r2, r6
 80007fe:	d008      	beq.n	8000812 <HAL_ADC_Init+0xda>
 8000800:	4e61      	ldr	r6, [pc, #388]	; (8000988 <HAL_ADC_Init+0x250>)
 8000802:	4f62      	ldr	r7, [pc, #392]	; (800098c <HAL_ADC_Init+0x254>)
 8000804:	6835      	ldr	r5, [r6, #0]
 8000806:	402f      	ands	r7, r5
 8000808:	25f0      	movs	r5, #240	; 0xf0
 800080a:	03ad      	lsls	r5, r5, #14
 800080c:	402a      	ands	r2, r5
 800080e:	433a      	orrs	r2, r7
 8000810:	6032      	str	r2, [r6, #0]
 8000812:	7e26      	ldrb	r6, [r4, #24]
 8000814:	7e62      	ldrb	r2, [r4, #25]
 8000816:	03b6      	lsls	r6, r6, #14
 8000818:	03d2      	lsls	r2, r2, #15
 800081a:	4316      	orrs	r6, r2
 800081c:	7ea2      	ldrb	r2, [r4, #26]
 800081e:	4694      	mov	ip, r2
 8000820:	0357      	lsls	r7, r2, #13
 8000822:	6b22      	ldr	r2, [r4, #48]	; 0x30
 8000824:	2a00      	cmp	r2, #0
 8000826:	d001      	beq.n	800082c <HAL_ADC_Init+0xf4>
 8000828:	2280      	movs	r2, #128	; 0x80
 800082a:	0152      	lsls	r2, r2, #5
 800082c:	68e5      	ldr	r5, [r4, #12]
 800082e:	432e      	orrs	r6, r5
 8000830:	6925      	ldr	r5, [r4, #16]
 8000832:	433e      	orrs	r6, r7
 8000834:	9603      	str	r6, [sp, #12]
 8000836:	9502      	str	r5, [sp, #8]
 8000838:	2d00      	cmp	r5, #0
 800083a:	da60      	bge.n	80008fe <HAL_ADC_Init+0x1c6>
 800083c:	006f      	lsls	r7, r5, #1
 800083e:	087f      	lsrs	r7, r7, #1
 8000840:	0026      	movs	r6, r4
 8000842:	362c      	adds	r6, #44	; 0x2c
 8000844:	7836      	ldrb	r6, [r6, #0]
 8000846:	9d03      	ldr	r5, [sp, #12]
 8000848:	0076      	lsls	r6, r6, #1
 800084a:	432e      	orrs	r6, r5
 800084c:	4332      	orrs	r2, r6
 800084e:	1c66      	adds	r6, r4, #1
 8000850:	7ff6      	ldrb	r6, [r6, #31]
 8000852:	433a      	orrs	r2, r7
 8000854:	2e01      	cmp	r6, #1
 8000856:	d105      	bne.n	8000864 <HAL_ADC_Init+0x12c>
 8000858:	4665      	mov	r5, ip
 800085a:	2d00      	cmp	r5, #0
 800085c:	d152      	bne.n	8000904 <HAL_ADC_Init+0x1cc>
 800085e:	2680      	movs	r6, #128	; 0x80
 8000860:	0276      	lsls	r6, r6, #9
 8000862:	4332      	orrs	r2, r6
 8000864:	6a66      	ldr	r6, [r4, #36]	; 0x24
 8000866:	2e00      	cmp	r6, #0
 8000868:	d005      	beq.n	8000876 <HAL_ADC_Init+0x13e>
 800086a:	27e0      	movs	r7, #224	; 0xe0
 800086c:	6aa5      	ldr	r5, [r4, #40]	; 0x28
 800086e:	007f      	lsls	r7, r7, #1
 8000870:	403e      	ands	r6, r7
 8000872:	432e      	orrs	r6, r5
 8000874:	4332      	orrs	r2, r6
 8000876:	68de      	ldr	r6, [r3, #12]
 8000878:	4f45      	ldr	r7, [pc, #276]	; (8000990 <HAL_ADC_Init+0x258>)
 800087a:	6b65      	ldr	r5, [r4, #52]	; 0x34
 800087c:	403e      	ands	r6, r7
 800087e:	4316      	orrs	r6, r2
 8000880:	60de      	str	r6, [r3, #12]
 8000882:	691e      	ldr	r6, [r3, #16]
 8000884:	4f43      	ldr	r7, [pc, #268]	; (8000994 <HAL_ADC_Init+0x25c>)
 8000886:	403e      	ands	r6, r7
 8000888:	4331      	orrs	r1, r6
 800088a:	2607      	movs	r6, #7
 800088c:	2770      	movs	r7, #112	; 0x70
 800088e:	6119      	str	r1, [r3, #16]
 8000890:	6959      	ldr	r1, [r3, #20]
 8000892:	43b1      	bics	r1, r6
 8000894:	4329      	orrs	r1, r5
 8000896:	6159      	str	r1, [r3, #20]
 8000898:	695e      	ldr	r6, [r3, #20]
 800089a:	6ba1      	ldr	r1, [r4, #56]	; 0x38
 800089c:	43be      	bics	r6, r7
 800089e:	0109      	lsls	r1, r1, #4
 80008a0:	4331      	orrs	r1, r6
 80008a2:	6159      	str	r1, [r3, #20]
 80008a4:	9902      	ldr	r1, [sp, #8]
 80008a6:	2900      	cmp	r1, #0
 80008a8:	d134      	bne.n	8000914 <HAL_ADC_Init+0x1dc>
 80008aa:	6a98      	ldr	r0, [r3, #40]	; 0x28
 80008ac:	3910      	subs	r1, #16
 80008ae:	4301      	orrs	r1, r0
 80008b0:	6299      	str	r1, [r3, #40]	; 0x28
 80008b2:	68db      	ldr	r3, [r3, #12]
 80008b4:	4938      	ldr	r1, [pc, #224]	; (8000998 <HAL_ADC_Init+0x260>)
 80008b6:	400b      	ands	r3, r1
 80008b8:	4293      	cmp	r3, r2
 80008ba:	d14d      	bne.n	8000958 <HAL_ADC_Init+0x220>
 80008bc:	2300      	movs	r3, #0
 80008be:	2203      	movs	r2, #3
 80008c0:	65e3      	str	r3, [r4, #92]	; 0x5c
 80008c2:	6da3      	ldr	r3, [r4, #88]	; 0x58
 80008c4:	4393      	bics	r3, r2
 80008c6:	001a      	movs	r2, r3
 80008c8:	2301      	movs	r3, #1
 80008ca:	4313      	orrs	r3, r2
 80008cc:	65a3      	str	r3, [r4, #88]	; 0x58
 80008ce:	9801      	ldr	r0, [sp, #4]
 80008d0:	b007      	add	sp, #28
 80008d2:	bdf0      	pop	{r4, r5, r6, r7, pc}
 80008d4:	68b2      	ldr	r2, [r6, #8]
 80008d6:	4931      	ldr	r1, [pc, #196]	; (800099c <HAL_ADC_Init+0x264>)
 80008d8:	400a      	ands	r2, r1
 80008da:	4313      	orrs	r3, r2
 80008dc:	60b3      	str	r3, [r6, #8]
 80008de:	4b30      	ldr	r3, [pc, #192]	; (80009a0 <HAL_ADC_Init+0x268>)
 80008e0:	4930      	ldr	r1, [pc, #192]	; (80009a4 <HAL_ADC_Init+0x26c>)
 80008e2:	6818      	ldr	r0, [r3, #0]
 80008e4:	f7ff fc2c 	bl	8000140 <__udivsi3>
 80008e8:	3001      	adds	r0, #1
 80008ea:	0040      	lsls	r0, r0, #1
 80008ec:	9005      	str	r0, [sp, #20]
 80008ee:	9b05      	ldr	r3, [sp, #20]
 80008f0:	2b00      	cmp	r3, #0
 80008f2:	d100      	bne.n	80008f6 <HAL_ADC_Init+0x1be>
 80008f4:	e739      	b.n	800076a <HAL_ADC_Init+0x32>
 80008f6:	9b05      	ldr	r3, [sp, #20]
 80008f8:	3b01      	subs	r3, #1
 80008fa:	9305      	str	r3, [sp, #20]
 80008fc:	e7f7      	b.n	80008ee <HAL_ADC_Init+0x1b6>
 80008fe:	2780      	movs	r7, #128	; 0x80
 8000900:	03bf      	lsls	r7, r7, #14
 8000902:	e79d      	b.n	8000840 <HAL_ADC_Init+0x108>
 8000904:	2720      	movs	r7, #32
 8000906:	6da5      	ldr	r5, [r4, #88]	; 0x58
 8000908:	432f      	orrs	r7, r5
 800090a:	65a7      	str	r7, [r4, #88]	; 0x58
 800090c:	6de7      	ldr	r7, [r4, #92]	; 0x5c
 800090e:	433e      	orrs	r6, r7
 8000910:	65e6      	str	r6, [r4, #92]	; 0x5c
 8000912:	e7a7      	b.n	8000864 <HAL_ADC_Init+0x12c>
 8000914:	2180      	movs	r1, #128	; 0x80
 8000916:	9d02      	ldr	r5, [sp, #8]
 8000918:	0389      	lsls	r1, r1, #14
 800091a:	428d      	cmp	r5, r1
 800091c:	d1c9      	bne.n	80008b2 <HAL_ADC_Init+0x17a>
 800091e:	270f      	movs	r7, #15
 8000920:	6e26      	ldr	r6, [r4, #96]	; 0x60
 8000922:	0035      	movs	r5, r6
 8000924:	0081      	lsls	r1, r0, #2
 8000926:	40cd      	lsrs	r5, r1
 8000928:	0029      	movs	r1, r5
 800092a:	4039      	ands	r1, r7
 800092c:	290f      	cmp	r1, #15
 800092e:	d00d      	beq.n	800094c <HAL_ADC_Init+0x214>
 8000930:	3001      	adds	r0, #1
 8000932:	2808      	cmp	r0, #8
 8000934:	d1f5      	bne.n	8000922 <HAL_ADC_Init+0x1ea>
 8000936:	201c      	movs	r0, #28
 8000938:	6a99      	ldr	r1, [r3, #40]	; 0x28
 800093a:	69e1      	ldr	r1, [r4, #28]
 800093c:	3901      	subs	r1, #1
 800093e:	0089      	lsls	r1, r1, #2
 8000940:	4001      	ands	r1, r0
 8000942:	382c      	subs	r0, #44	; 0x2c
 8000944:	4088      	lsls	r0, r1
 8000946:	0001      	movs	r1, r0
 8000948:	4331      	orrs	r1, r6
 800094a:	e7b1      	b.n	80008b0 <HAL_ADC_Init+0x178>
 800094c:	2801      	cmp	r0, #1
 800094e:	d1f2      	bne.n	8000936 <HAL_ADC_Init+0x1fe>
 8000950:	2110      	movs	r1, #16
 8000952:	6a98      	ldr	r0, [r3, #40]	; 0x28
 8000954:	4249      	negs	r1, r1
 8000956:	e7aa      	b.n	80008ae <HAL_ADC_Init+0x176>
 8000958:	2212      	movs	r2, #18
 800095a:	6da3      	ldr	r3, [r4, #88]	; 0x58
 800095c:	2501      	movs	r5, #1
 800095e:	4393      	bics	r3, r2
 8000960:	001a      	movs	r2, r3
 8000962:	2310      	movs	r3, #16
 8000964:	4313      	orrs	r3, r2
 8000966:	65a3      	str	r3, [r4, #88]	; 0x58
 8000968:	6de3      	ldr	r3, [r4, #92]	; 0x5c
 800096a:	9501      	str	r5, [sp, #4]
 800096c:	432b      	orrs	r3, r5
 800096e:	65e3      	str	r3, [r4, #92]	; 0x5c
 8000970:	e7ad      	b.n	80008ce <HAL_ADC_Init+0x196>
 8000972:	6da2      	ldr	r2, [r4, #88]	; 0x58
 8000974:	4313      	orrs	r3, r2
 8000976:	65a3      	str	r3, [r4, #88]	; 0x58
 8000978:	2301      	movs	r3, #1
 800097a:	9301      	str	r3, [sp, #4]
 800097c:	e7a7      	b.n	80008ce <HAL_ADC_Init+0x196>
 800097e:	46c0      	nop			; (mov r8, r8)
 8000980:	fffffefd 	.word	0xfffffefd
 8000984:	1ffffc02 	.word	0x1ffffc02
 8000988:	40012708 	.word	0x40012708
 800098c:	ffc3ffff 	.word	0xffc3ffff
 8000990:	fffe0219 	.word	0xfffe0219
 8000994:	dffffc02 	.word	0xdffffc02
 8000998:	833fffe7 	.word	0x833fffe7
 800099c:	6fffffe8 	.word	0x6fffffe8
 80009a0:	2000000c 	.word	0x2000000c
 80009a4:	00030d40 	.word	0x00030d40

080009a8 <HAL_ADC_ConfigChannel>:
 80009a8:	2300      	movs	r3, #0
 80009aa:	b5f0      	push	{r4, r5, r6, r7, lr}
 80009ac:	b087      	sub	sp, #28
 80009ae:	9305      	str	r3, [sp, #20]
 80009b0:	0003      	movs	r3, r0
 80009b2:	3354      	adds	r3, #84	; 0x54
 80009b4:	781a      	ldrb	r2, [r3, #0]
 80009b6:	0005      	movs	r5, r0
 80009b8:	000e      	movs	r6, r1
 80009ba:	2002      	movs	r0, #2
 80009bc:	2a01      	cmp	r2, #1
 80009be:	d100      	bne.n	80009c2 <HAL_ADC_ConfigChannel+0x1a>
 80009c0:	e0c3      	b.n	8000b4a <HAL_ADC_ConfigChannel+0x1a2>
 80009c2:	2401      	movs	r4, #1
 80009c4:	701c      	strb	r4, [r3, #0]
 80009c6:	6828      	ldr	r0, [r5, #0]
 80009c8:	f7ff feb2 	bl	8000730 <LL_ADC_REG_IsConversionOngoing>
 80009cc:	2800      	cmp	r0, #0
 80009ce:	d000      	beq.n	80009d2 <HAL_ADC_ConfigChannel+0x2a>
 80009d0:	e0f9      	b.n	8000bc6 <HAL_ADC_ConfigChannel+0x21e>
 80009d2:	2280      	movs	r2, #128	; 0x80
 80009d4:	6873      	ldr	r3, [r6, #4]
 80009d6:	0612      	lsls	r2, r2, #24
 80009d8:	9301      	str	r3, [sp, #4]
 80009da:	2304      	movs	r3, #4
 80009dc:	4694      	mov	ip, r2
 80009de:	692f      	ldr	r7, [r5, #16]
 80009e0:	9a01      	ldr	r2, [sp, #4]
 80009e2:	439f      	bics	r7, r3
 80009e4:	6833      	ldr	r3, [r6, #0]
 80009e6:	2a02      	cmp	r2, #2
 80009e8:	d100      	bne.n	80009ec <HAL_ADC_ConfigChannel+0x44>
 80009ea:	e0c2      	b.n	8000b72 <HAL_ADC_ConfigChannel+0x1ca>
 80009ec:	0359      	lsls	r1, r3, #13
 80009ee:	0b49      	lsrs	r1, r1, #13
 80009f0:	682a      	ldr	r2, [r5, #0]
 80009f2:	9102      	str	r1, [sp, #8]
 80009f4:	4567      	cmp	r7, ip
 80009f6:	d10f      	bne.n	8000a18 <HAL_ADC_ConfigChannel+0x70>
 80009f8:	6a90      	ldr	r0, [r2, #40]	; 0x28
 80009fa:	4301      	orrs	r1, r0
 80009fc:	6291      	str	r1, [r2, #40]	; 0x28
 80009fe:	68b1      	ldr	r1, [r6, #8]
 8000a00:	6954      	ldr	r4, [r2, #20]
 8000a02:	0218      	lsls	r0, r3, #8
 8000a04:	4e73      	ldr	r6, [pc, #460]	; (8000bd4 <HAL_ADC_ConfigChannel+0x22c>)
 8000a06:	4001      	ands	r1, r0
 8000a08:	4031      	ands	r1, r6
 8000a0a:	4384      	bics	r4, r0
 8000a0c:	4321      	orrs	r1, r4
 8000a0e:	6151      	str	r1, [r2, #20]
 8000a10:	2b00      	cmp	r3, #0
 8000a12:	db64      	blt.n	8000ade <HAL_ADC_ConfigChannel+0x136>
 8000a14:	2000      	movs	r0, #0
 8000a16:	e095      	b.n	8000b44 <HAL_ADC_ConfigChannel+0x19c>
 8000a18:	211f      	movs	r1, #31
 8000a1a:	9f01      	ldr	r7, [sp, #4]
 8000a1c:	400f      	ands	r7, r1
 8000a1e:	46bc      	mov	ip, r7
 8000a20:	270f      	movs	r7, #15
 8000a22:	4661      	mov	r1, ip
 8000a24:	408f      	lsls	r7, r1
 8000a26:	43f9      	mvns	r1, r7
 8000a28:	9103      	str	r1, [sp, #12]
 8000a2a:	6e29      	ldr	r1, [r5, #96]	; 0x60
 8000a2c:	43b9      	bics	r1, r7
 8000a2e:	000f      	movs	r7, r1
 8000a30:	9902      	ldr	r1, [sp, #8]
 8000a32:	2900      	cmp	r1, #0
 8000a34:	d114      	bne.n	8000a60 <HAL_ADC_ConfigChannel+0xb8>
 8000a36:	0e98      	lsrs	r0, r3, #26
 8000a38:	311f      	adds	r1, #31
 8000a3a:	4008      	ands	r0, r1
 8000a3c:	4661      	mov	r1, ip
 8000a3e:	4088      	lsls	r0, r1
 8000a40:	9901      	ldr	r1, [sp, #4]
 8000a42:	4307      	orrs	r7, r0
 8000a44:	0889      	lsrs	r1, r1, #2
 8000a46:	69e8      	ldr	r0, [r5, #28]
 8000a48:	3101      	adds	r1, #1
 8000a4a:	662f      	str	r7, [r5, #96]	; 0x60
 8000a4c:	4281      	cmp	r1, r0
 8000a4e:	d8d6      	bhi.n	80009fe <HAL_ADC_ConfigChannel+0x56>
 8000a50:	4664      	mov	r4, ip
 8000a52:	0099      	lsls	r1, r3, #2
 8000a54:	0f09      	lsrs	r1, r1, #28
 8000a56:	40a1      	lsls	r1, r4
 8000a58:	6a90      	ldr	r0, [r2, #40]	; 0x28
 8000a5a:	9c03      	ldr	r4, [sp, #12]
 8000a5c:	4020      	ands	r0, r4
 8000a5e:	e7cc      	b.n	80009fa <HAL_ADC_ConfigChannel+0x52>
 8000a60:	4223      	tst	r3, r4
 8000a62:	d1eb      	bne.n	8000a3c <HAL_ADC_ConfigChannel+0x94>
 8000a64:	2102      	movs	r1, #2
 8000a66:	0020      	movs	r0, r4
 8000a68:	420b      	tst	r3, r1
 8000a6a:	d1e7      	bne.n	8000a3c <HAL_ADC_ConfigChannel+0x94>
 8000a6c:	0008      	movs	r0, r1
 8000a6e:	1849      	adds	r1, r1, r1
 8000a70:	420b      	tst	r3, r1
 8000a72:	d1e3      	bne.n	8000a3c <HAL_ADC_ConfigChannel+0x94>
 8000a74:	3001      	adds	r0, #1
 8000a76:	0719      	lsls	r1, r3, #28
 8000a78:	d4e0      	bmi.n	8000a3c <HAL_ADC_ConfigChannel+0x94>
 8000a7a:	3001      	adds	r0, #1
 8000a7c:	06d9      	lsls	r1, r3, #27
 8000a7e:	d4dd      	bmi.n	8000a3c <HAL_ADC_ConfigChannel+0x94>
 8000a80:	3001      	adds	r0, #1
 8000a82:	0699      	lsls	r1, r3, #26
 8000a84:	d4da      	bmi.n	8000a3c <HAL_ADC_ConfigChannel+0x94>
 8000a86:	3001      	adds	r0, #1
 8000a88:	0659      	lsls	r1, r3, #25
 8000a8a:	d4d7      	bmi.n	8000a3c <HAL_ADC_ConfigChannel+0x94>
 8000a8c:	3001      	adds	r0, #1
 8000a8e:	0619      	lsls	r1, r3, #24
 8000a90:	d4d4      	bmi.n	8000a3c <HAL_ADC_ConfigChannel+0x94>
 8000a92:	3001      	adds	r0, #1
 8000a94:	05d9      	lsls	r1, r3, #23
 8000a96:	d4d1      	bmi.n	8000a3c <HAL_ADC_ConfigChannel+0x94>
 8000a98:	3001      	adds	r0, #1
 8000a9a:	0599      	lsls	r1, r3, #22
 8000a9c:	d4ce      	bmi.n	8000a3c <HAL_ADC_ConfigChannel+0x94>
 8000a9e:	3001      	adds	r0, #1
 8000aa0:	0559      	lsls	r1, r3, #21
 8000aa2:	d4cb      	bmi.n	8000a3c <HAL_ADC_ConfigChannel+0x94>
 8000aa4:	3001      	adds	r0, #1
 8000aa6:	0519      	lsls	r1, r3, #20
 8000aa8:	d4c8      	bmi.n	8000a3c <HAL_ADC_ConfigChannel+0x94>
 8000aaa:	3001      	adds	r0, #1
 8000aac:	04d9      	lsls	r1, r3, #19
 8000aae:	d4c5      	bmi.n	8000a3c <HAL_ADC_ConfigChannel+0x94>
 8000ab0:	3001      	adds	r0, #1
 8000ab2:	0499      	lsls	r1, r3, #18
 8000ab4:	d4c2      	bmi.n	8000a3c <HAL_ADC_ConfigChannel+0x94>
 8000ab6:	3001      	adds	r0, #1
 8000ab8:	0459      	lsls	r1, r3, #17
 8000aba:	d4bf      	bmi.n	8000a3c <HAL_ADC_ConfigChannel+0x94>
 8000abc:	3001      	adds	r0, #1
 8000abe:	0419      	lsls	r1, r3, #16
 8000ac0:	d4bc      	bmi.n	8000a3c <HAL_ADC_ConfigChannel+0x94>
 8000ac2:	3001      	adds	r0, #1
 8000ac4:	03d9      	lsls	r1, r3, #15
 8000ac6:	d4b9      	bmi.n	8000a3c <HAL_ADC_ConfigChannel+0x94>
 8000ac8:	3001      	adds	r0, #1
 8000aca:	0399      	lsls	r1, r3, #14
 8000acc:	d4b6      	bmi.n	8000a3c <HAL_ADC_ConfigChannel+0x94>
 8000ace:	2180      	movs	r1, #128	; 0x80
 8000ad0:	0018      	movs	r0, r3
 8000ad2:	02c9      	lsls	r1, r1, #11
 8000ad4:	4008      	ands	r0, r1
 8000ad6:	420b      	tst	r3, r1
 8000ad8:	d0b0      	beq.n	8000a3c <HAL_ADC_ConfigChannel+0x94>
 8000ada:	2012      	movs	r0, #18
 8000adc:	e7ae      	b.n	8000a3c <HAL_ADC_ConfigChannel+0x94>
 8000ade:	24e0      	movs	r4, #224	; 0xe0
 8000ae0:	4a3d      	ldr	r2, [pc, #244]	; (8000bd8 <HAL_ADC_ConfigChannel+0x230>)
 8000ae2:	483e      	ldr	r0, [pc, #248]	; (8000bdc <HAL_ADC_ConfigChannel+0x234>)
 8000ae4:	6811      	ldr	r1, [r2, #0]
 8000ae6:	0464      	lsls	r4, r4, #17
 8000ae8:	400c      	ands	r4, r1
 8000aea:	4283      	cmp	r3, r0
 8000aec:	d11a      	bne.n	8000b24 <HAL_ADC_ConfigChannel+0x17c>
 8000aee:	2380      	movs	r3, #128	; 0x80
 8000af0:	041b      	lsls	r3, r3, #16
 8000af2:	4219      	tst	r1, r3
 8000af4:	d18e      	bne.n	8000a14 <HAL_ADC_ConfigChannel+0x6c>
 8000af6:	6811      	ldr	r1, [r2, #0]
 8000af8:	4839      	ldr	r0, [pc, #228]	; (8000be0 <HAL_ADC_ConfigChannel+0x238>)
 8000afa:	4001      	ands	r1, r0
 8000afc:	4321      	orrs	r1, r4
 8000afe:	4319      	orrs	r1, r3
 8000b00:	4b38      	ldr	r3, [pc, #224]	; (8000be4 <HAL_ADC_ConfigChannel+0x23c>)
 8000b02:	6011      	str	r1, [r2, #0]
 8000b04:	6818      	ldr	r0, [r3, #0]
 8000b06:	4938      	ldr	r1, [pc, #224]	; (8000be8 <HAL_ADC_ConfigChannel+0x240>)
 8000b08:	f7ff fb1a 	bl	8000140 <__udivsi3>
 8000b0c:	1c43      	adds	r3, r0, #1
 8000b0e:	200c      	movs	r0, #12
 8000b10:	4358      	muls	r0, r3
 8000b12:	9005      	str	r0, [sp, #20]
 8000b14:	9b05      	ldr	r3, [sp, #20]
 8000b16:	2b00      	cmp	r3, #0
 8000b18:	d100      	bne.n	8000b1c <HAL_ADC_ConfigChannel+0x174>
 8000b1a:	e77b      	b.n	8000a14 <HAL_ADC_ConfigChannel+0x6c>
 8000b1c:	9b05      	ldr	r3, [sp, #20]
 8000b1e:	3b01      	subs	r3, #1
 8000b20:	9305      	str	r3, [sp, #20]
 8000b22:	e7f7      	b.n	8000b14 <HAL_ADC_ConfigChannel+0x16c>
 8000b24:	4831      	ldr	r0, [pc, #196]	; (8000bec <HAL_ADC_ConfigChannel+0x244>)
 8000b26:	4283      	cmp	r3, r0
 8000b28:	d111      	bne.n	8000b4e <HAL_ADC_ConfigChannel+0x1a6>
 8000b2a:	2680      	movs	r6, #128	; 0x80
 8000b2c:	0008      	movs	r0, r1
 8000b2e:	0476      	lsls	r6, r6, #17
 8000b30:	4030      	ands	r0, r6
 8000b32:	4231      	tst	r1, r6
 8000b34:	d000      	beq.n	8000b38 <HAL_ADC_ConfigChannel+0x190>
 8000b36:	e76d      	b.n	8000a14 <HAL_ADC_ConfigChannel+0x6c>
 8000b38:	6811      	ldr	r1, [r2, #0]
 8000b3a:	4b29      	ldr	r3, [pc, #164]	; (8000be0 <HAL_ADC_ConfigChannel+0x238>)
 8000b3c:	4019      	ands	r1, r3
 8000b3e:	4321      	orrs	r1, r4
 8000b40:	430e      	orrs	r6, r1
 8000b42:	6016      	str	r6, [r2, #0]
 8000b44:	2300      	movs	r3, #0
 8000b46:	3554      	adds	r5, #84	; 0x54
 8000b48:	702b      	strb	r3, [r5, #0]
 8000b4a:	b007      	add	sp, #28
 8000b4c:	bdf0      	pop	{r4, r5, r6, r7, pc}
 8000b4e:	4828      	ldr	r0, [pc, #160]	; (8000bf0 <HAL_ADC_ConfigChannel+0x248>)
 8000b50:	4283      	cmp	r3, r0
 8000b52:	d000      	beq.n	8000b56 <HAL_ADC_ConfigChannel+0x1ae>
 8000b54:	e75e      	b.n	8000a14 <HAL_ADC_ConfigChannel+0x6c>
 8000b56:	2380      	movs	r3, #128	; 0x80
 8000b58:	0008      	movs	r0, r1
 8000b5a:	03db      	lsls	r3, r3, #15
 8000b5c:	4018      	ands	r0, r3
 8000b5e:	4219      	tst	r1, r3
 8000b60:	d000      	beq.n	8000b64 <HAL_ADC_ConfigChannel+0x1bc>
 8000b62:	e757      	b.n	8000a14 <HAL_ADC_ConfigChannel+0x6c>
 8000b64:	6811      	ldr	r1, [r2, #0]
 8000b66:	4e1e      	ldr	r6, [pc, #120]	; (8000be0 <HAL_ADC_ConfigChannel+0x238>)
 8000b68:	4031      	ands	r1, r6
 8000b6a:	4321      	orrs	r1, r4
 8000b6c:	430b      	orrs	r3, r1
 8000b6e:	6013      	str	r3, [r2, #0]
 8000b70:	e7e8      	b.n	8000b44 <HAL_ADC_ConfigChannel+0x19c>
 8000b72:	4567      	cmp	r7, ip
 8000b74:	d105      	bne.n	8000b82 <HAL_ADC_ConfigChannel+0x1da>
 8000b76:	6828      	ldr	r0, [r5, #0]
 8000b78:	0359      	lsls	r1, r3, #13
 8000b7a:	6a82      	ldr	r2, [r0, #40]	; 0x28
 8000b7c:	0b49      	lsrs	r1, r1, #13
 8000b7e:	438a      	bics	r2, r1
 8000b80:	6282      	str	r2, [r0, #40]	; 0x28
 8000b82:	2b00      	cmp	r3, #0
 8000b84:	db00      	blt.n	8000b88 <HAL_ADC_ConfigChannel+0x1e0>
 8000b86:	e745      	b.n	8000a14 <HAL_ADC_ConfigChannel+0x6c>
 8000b88:	4a13      	ldr	r2, [pc, #76]	; (8000bd8 <HAL_ADC_ConfigChannel+0x230>)
 8000b8a:	4814      	ldr	r0, [pc, #80]	; (8000bdc <HAL_ADC_ConfigChannel+0x234>)
 8000b8c:	6811      	ldr	r1, [r2, #0]
 8000b8e:	4283      	cmp	r3, r0
 8000b90:	d108      	bne.n	8000ba4 <HAL_ADC_ConfigChannel+0x1fc>
 8000b92:	23a0      	movs	r3, #160	; 0xa0
 8000b94:	6810      	ldr	r0, [r2, #0]
 8000b96:	045b      	lsls	r3, r3, #17
 8000b98:	4019      	ands	r1, r3
 8000b9a:	4b11      	ldr	r3, [pc, #68]	; (8000be0 <HAL_ADC_ConfigChannel+0x238>)
 8000b9c:	4003      	ands	r3, r0
 8000b9e:	4319      	orrs	r1, r3
 8000ba0:	6011      	str	r1, [r2, #0]
 8000ba2:	e737      	b.n	8000a14 <HAL_ADC_ConfigChannel+0x6c>
 8000ba4:	4811      	ldr	r0, [pc, #68]	; (8000bec <HAL_ADC_ConfigChannel+0x244>)
 8000ba6:	4283      	cmp	r3, r0
 8000ba8:	d103      	bne.n	8000bb2 <HAL_ADC_ConfigChannel+0x20a>
 8000baa:	23c0      	movs	r3, #192	; 0xc0
 8000bac:	6810      	ldr	r0, [r2, #0]
 8000bae:	041b      	lsls	r3, r3, #16
 8000bb0:	e7f2      	b.n	8000b98 <HAL_ADC_ConfigChannel+0x1f0>
 8000bb2:	480f      	ldr	r0, [pc, #60]	; (8000bf0 <HAL_ADC_ConfigChannel+0x248>)
 8000bb4:	4283      	cmp	r3, r0
 8000bb6:	d000      	beq.n	8000bba <HAL_ADC_ConfigChannel+0x212>
 8000bb8:	e72c      	b.n	8000a14 <HAL_ADC_ConfigChannel+0x6c>
 8000bba:	20c0      	movs	r0, #192	; 0xc0
 8000bbc:	0440      	lsls	r0, r0, #17
 8000bbe:	4001      	ands	r1, r0
 8000bc0:	6813      	ldr	r3, [r2, #0]
 8000bc2:	4807      	ldr	r0, [pc, #28]	; (8000be0 <HAL_ADC_ConfigChannel+0x238>)
 8000bc4:	e7ea      	b.n	8000b9c <HAL_ADC_ConfigChannel+0x1f4>
 8000bc6:	2320      	movs	r3, #32
 8000bc8:	6daa      	ldr	r2, [r5, #88]	; 0x58
 8000bca:	0020      	movs	r0, r4
 8000bcc:	4313      	orrs	r3, r2
 8000bce:	65ab      	str	r3, [r5, #88]	; 0x58
 8000bd0:	e7b8      	b.n	8000b44 <HAL_ADC_ConfigChannel+0x19c>
 8000bd2:	46c0      	nop			; (mov r8, r8)
 8000bd4:	07ffff00 	.word	0x07ffff00
 8000bd8:	40012708 	.word	0x40012708
 8000bdc:	b0001000 	.word	0xb0001000
 8000be0:	fe3fffff 	.word	0xfe3fffff
 8000be4:	2000000c 	.word	0x2000000c
 8000be8:	00030d40 	.word	0x00030d40
 8000bec:	b8004000 	.word	0xb8004000
 8000bf0:	b4002000 	.word	0xb4002000

08000bf4 <HAL_NVIC_SetPriority>:
 8000bf4:	b530      	push	{r4, r5, lr}
 8000bf6:	25ff      	movs	r5, #255	; 0xff
 8000bf8:	2403      	movs	r4, #3
 8000bfa:	002a      	movs	r2, r5
 8000bfc:	4004      	ands	r4, r0
 8000bfe:	00e4      	lsls	r4, r4, #3
 8000c00:	40a2      	lsls	r2, r4
 8000c02:	0189      	lsls	r1, r1, #6
 8000c04:	4029      	ands	r1, r5
 8000c06:	43d2      	mvns	r2, r2
 8000c08:	40a1      	lsls	r1, r4
 8000c0a:	b2c3      	uxtb	r3, r0
 8000c0c:	2800      	cmp	r0, #0
 8000c0e:	db0a      	blt.n	8000c26 <HAL_NVIC_SetPriority+0x32>
 8000c10:	24c0      	movs	r4, #192	; 0xc0
 8000c12:	4b0b      	ldr	r3, [pc, #44]	; (8000c40 <HAL_NVIC_SetPriority+0x4c>)
 8000c14:	0880      	lsrs	r0, r0, #2
 8000c16:	0080      	lsls	r0, r0, #2
 8000c18:	18c0      	adds	r0, r0, r3
 8000c1a:	00a4      	lsls	r4, r4, #2
 8000c1c:	5903      	ldr	r3, [r0, r4]
 8000c1e:	401a      	ands	r2, r3
 8000c20:	4311      	orrs	r1, r2
 8000c22:	5101      	str	r1, [r0, r4]
 8000c24:	bd30      	pop	{r4, r5, pc}
 8000c26:	200f      	movs	r0, #15
 8000c28:	4003      	ands	r3, r0
 8000c2a:	3b08      	subs	r3, #8
 8000c2c:	4805      	ldr	r0, [pc, #20]	; (8000c44 <HAL_NVIC_SetPriority+0x50>)
 8000c2e:	089b      	lsrs	r3, r3, #2
 8000c30:	009b      	lsls	r3, r3, #2
 8000c32:	181b      	adds	r3, r3, r0
 8000c34:	69d8      	ldr	r0, [r3, #28]
 8000c36:	4002      	ands	r2, r0
 8000c38:	4311      	orrs	r1, r2
 8000c3a:	61d9      	str	r1, [r3, #28]
 8000c3c:	e7f2      	b.n	8000c24 <HAL_NVIC_SetPriority+0x30>
 8000c3e:	46c0      	nop			; (mov r8, r8)
 8000c40:	e000e100 	.word	0xe000e100
 8000c44:	e000ed00 	.word	0xe000ed00

08000c48 <HAL_NVIC_EnableIRQ>:
 8000c48:	2800      	cmp	r0, #0
 8000c4a:	db05      	blt.n	8000c58 <HAL_NVIC_EnableIRQ+0x10>
 8000c4c:	231f      	movs	r3, #31
 8000c4e:	4018      	ands	r0, r3
 8000c50:	3b1e      	subs	r3, #30
 8000c52:	4083      	lsls	r3, r0
 8000c54:	4a01      	ldr	r2, [pc, #4]	; (8000c5c <HAL_NVIC_EnableIRQ+0x14>)
 8000c56:	6013      	str	r3, [r2, #0]
 8000c58:	4770      	bx	lr
 8000c5a:	46c0      	nop			; (mov r8, r8)
 8000c5c:	e000e100 	.word	0xe000e100

08000c60 <HAL_SYSTICK_Config>:
 8000c60:	2280      	movs	r2, #128	; 0x80
 8000c62:	1e43      	subs	r3, r0, #1
 8000c64:	0452      	lsls	r2, r2, #17
 8000c66:	2001      	movs	r0, #1
 8000c68:	4293      	cmp	r3, r2
 8000c6a:	d20d      	bcs.n	8000c88 <HAL_SYSTICK_Config+0x28>
 8000c6c:	21c0      	movs	r1, #192	; 0xc0
 8000c6e:	4a07      	ldr	r2, [pc, #28]	; (8000c8c <HAL_SYSTICK_Config+0x2c>)
 8000c70:	4807      	ldr	r0, [pc, #28]	; (8000c90 <HAL_SYSTICK_Config+0x30>)
 8000c72:	6053      	str	r3, [r2, #4]
 8000c74:	6a03      	ldr	r3, [r0, #32]
 8000c76:	0609      	lsls	r1, r1, #24
 8000c78:	021b      	lsls	r3, r3, #8
 8000c7a:	0a1b      	lsrs	r3, r3, #8
 8000c7c:	430b      	orrs	r3, r1
 8000c7e:	6203      	str	r3, [r0, #32]
 8000c80:	2000      	movs	r0, #0
 8000c82:	2307      	movs	r3, #7
 8000c84:	6090      	str	r0, [r2, #8]
 8000c86:	6013      	str	r3, [r2, #0]
 8000c88:	4770      	bx	lr
 8000c8a:	46c0      	nop			; (mov r8, r8)
 8000c8c:	e000e010 	.word	0xe000e010
 8000c90:	e000ed00 	.word	0xe000ed00

08000c94 <HAL_GPIO_Init>:
 8000c94:	2300      	movs	r3, #0
 8000c96:	b5f0      	push	{r4, r5, r6, r7, lr}
 8000c98:	b085      	sub	sp, #20
 8000c9a:	680a      	ldr	r2, [r1, #0]
 8000c9c:	0014      	movs	r4, r2
 8000c9e:	40dc      	lsrs	r4, r3
 8000ca0:	d101      	bne.n	8000ca6 <HAL_GPIO_Init+0x12>
 8000ca2:	b005      	add	sp, #20
 8000ca4:	bdf0      	pop	{r4, r5, r6, r7, pc}
 8000ca6:	2501      	movs	r5, #1
 8000ca8:	0014      	movs	r4, r2
 8000caa:	409d      	lsls	r5, r3
 8000cac:	402c      	ands	r4, r5
 8000cae:	9401      	str	r4, [sp, #4]
 8000cb0:	422a      	tst	r2, r5
 8000cb2:	d100      	bne.n	8000cb6 <HAL_GPIO_Init+0x22>
 8000cb4:	e08e      	b.n	8000dd4 <HAL_GPIO_Init+0x140>
 8000cb6:	684a      	ldr	r2, [r1, #4]
 8000cb8:	005e      	lsls	r6, r3, #1
 8000cba:	4694      	mov	ip, r2
 8000cbc:	2203      	movs	r2, #3
 8000cbe:	4664      	mov	r4, ip
 8000cc0:	4022      	ands	r2, r4
 8000cc2:	2403      	movs	r4, #3
 8000cc4:	40b4      	lsls	r4, r6
 8000cc6:	43e4      	mvns	r4, r4
 8000cc8:	9402      	str	r4, [sp, #8]
 8000cca:	1e54      	subs	r4, r2, #1
 8000ccc:	2c01      	cmp	r4, #1
 8000cce:	d82a      	bhi.n	8000d26 <HAL_GPIO_Init+0x92>
 8000cd0:	6887      	ldr	r7, [r0, #8]
 8000cd2:	9c02      	ldr	r4, [sp, #8]
 8000cd4:	4027      	ands	r7, r4
 8000cd6:	68cc      	ldr	r4, [r1, #12]
 8000cd8:	40b4      	lsls	r4, r6
 8000cda:	433c      	orrs	r4, r7
 8000cdc:	6084      	str	r4, [r0, #8]
 8000cde:	6844      	ldr	r4, [r0, #4]
 8000ce0:	2701      	movs	r7, #1
 8000ce2:	43ac      	bics	r4, r5
 8000ce4:	0025      	movs	r5, r4
 8000ce6:	4664      	mov	r4, ip
 8000ce8:	0924      	lsrs	r4, r4, #4
 8000cea:	403c      	ands	r4, r7
 8000cec:	409c      	lsls	r4, r3
 8000cee:	432c      	orrs	r4, r5
 8000cf0:	6044      	str	r4, [r0, #4]
 8000cf2:	68c5      	ldr	r5, [r0, #12]
 8000cf4:	9c02      	ldr	r4, [sp, #8]
 8000cf6:	4025      	ands	r5, r4
 8000cf8:	688c      	ldr	r4, [r1, #8]
 8000cfa:	40b4      	lsls	r4, r6
 8000cfc:	432c      	orrs	r4, r5
 8000cfe:	60c4      	str	r4, [r0, #12]
 8000d00:	2a02      	cmp	r2, #2
 8000d02:	d112      	bne.n	8000d2a <HAL_GPIO_Init+0x96>
 8000d04:	08dc      	lsrs	r4, r3, #3
 8000d06:	2507      	movs	r5, #7
 8000d08:	00a4      	lsls	r4, r4, #2
 8000d0a:	1904      	adds	r4, r0, r4
 8000d0c:	6a27      	ldr	r7, [r4, #32]
 8000d0e:	9403      	str	r4, [sp, #12]
 8000d10:	240f      	movs	r4, #15
 8000d12:	401d      	ands	r5, r3
 8000d14:	00ad      	lsls	r5, r5, #2
 8000d16:	40ac      	lsls	r4, r5
 8000d18:	43a7      	bics	r7, r4
 8000d1a:	690c      	ldr	r4, [r1, #16]
 8000d1c:	40ac      	lsls	r4, r5
 8000d1e:	4327      	orrs	r7, r4
 8000d20:	9c03      	ldr	r4, [sp, #12]
 8000d22:	6227      	str	r7, [r4, #32]
 8000d24:	e001      	b.n	8000d2a <HAL_GPIO_Init+0x96>
 8000d26:	2a03      	cmp	r2, #3
 8000d28:	d1e3      	bne.n	8000cf2 <HAL_GPIO_Init+0x5e>
 8000d2a:	6804      	ldr	r4, [r0, #0]
 8000d2c:	9d02      	ldr	r5, [sp, #8]
 8000d2e:	40b2      	lsls	r2, r6
 8000d30:	4025      	ands	r5, r4
 8000d32:	002c      	movs	r4, r5
 8000d34:	4314      	orrs	r4, r2
 8000d36:	6004      	str	r4, [r0, #0]
 8000d38:	24c0      	movs	r4, #192	; 0xc0
 8000d3a:	4662      	mov	r2, ip
 8000d3c:	02a4      	lsls	r4, r4, #10
 8000d3e:	4222      	tst	r2, r4
 8000d40:	d048      	beq.n	8000dd4 <HAL_GPIO_Init+0x140>
 8000d42:	4a25      	ldr	r2, [pc, #148]	; (8000dd8 <HAL_GPIO_Init+0x144>)
 8000d44:	2503      	movs	r5, #3
 8000d46:	089c      	lsrs	r4, r3, #2
 8000d48:	00a4      	lsls	r4, r4, #2
 8000d4a:	18a4      	adds	r4, r4, r2
 8000d4c:	220f      	movs	r2, #15
 8000d4e:	401d      	ands	r5, r3
 8000d50:	00ed      	lsls	r5, r5, #3
 8000d52:	40aa      	lsls	r2, r5
 8000d54:	27a0      	movs	r7, #160	; 0xa0
 8000d56:	6e26      	ldr	r6, [r4, #96]	; 0x60
 8000d58:	05ff      	lsls	r7, r7, #23
 8000d5a:	4396      	bics	r6, r2
 8000d5c:	2200      	movs	r2, #0
 8000d5e:	42b8      	cmp	r0, r7
 8000d60:	d00c      	beq.n	8000d7c <HAL_GPIO_Init+0xe8>
 8000d62:	4f1e      	ldr	r7, [pc, #120]	; (8000ddc <HAL_GPIO_Init+0x148>)
 8000d64:	3201      	adds	r2, #1
 8000d66:	42b8      	cmp	r0, r7
 8000d68:	d008      	beq.n	8000d7c <HAL_GPIO_Init+0xe8>
 8000d6a:	4f1d      	ldr	r7, [pc, #116]	; (8000de0 <HAL_GPIO_Init+0x14c>)
 8000d6c:	3201      	adds	r2, #1
 8000d6e:	42b8      	cmp	r0, r7
 8000d70:	d004      	beq.n	8000d7c <HAL_GPIO_Init+0xe8>
 8000d72:	4f1c      	ldr	r7, [pc, #112]	; (8000de4 <HAL_GPIO_Init+0x150>)
 8000d74:	3201      	adds	r2, #1
 8000d76:	42b8      	cmp	r0, r7
 8000d78:	d000      	beq.n	8000d7c <HAL_GPIO_Init+0xe8>
 8000d7a:	3202      	adds	r2, #2
 8000d7c:	40aa      	lsls	r2, r5
 8000d7e:	4667      	mov	r7, ip
 8000d80:	4332      	orrs	r2, r6
 8000d82:	6622      	str	r2, [r4, #96]	; 0x60
 8000d84:	4a18      	ldr	r2, [pc, #96]	; (8000de8 <HAL_GPIO_Init+0x154>)
 8000d86:	9c01      	ldr	r4, [sp, #4]
 8000d88:	6fd6      	ldr	r6, [r2, #124]	; 0x7c
 8000d8a:	9d01      	ldr	r5, [sp, #4]
 8000d8c:	43e4      	mvns	r4, r4
 8000d8e:	4335      	orrs	r5, r6
 8000d90:	03ff      	lsls	r7, r7, #15
 8000d92:	d401      	bmi.n	8000d98 <HAL_GPIO_Init+0x104>
 8000d94:	0035      	movs	r5, r6
 8000d96:	4025      	ands	r5, r4
 8000d98:	4667      	mov	r7, ip
 8000d9a:	67d5      	str	r5, [r2, #124]	; 0x7c
 8000d9c:	4d13      	ldr	r5, [pc, #76]	; (8000dec <HAL_GPIO_Init+0x158>)
 8000d9e:	9e01      	ldr	r6, [sp, #4]
 8000da0:	6fea      	ldr	r2, [r5, #124]	; 0x7c
 8000da2:	4316      	orrs	r6, r2
 8000da4:	03bf      	lsls	r7, r7, #14
 8000da6:	d401      	bmi.n	8000dac <HAL_GPIO_Init+0x118>
 8000da8:	4022      	ands	r2, r4
 8000daa:	0016      	movs	r6, r2
 8000dac:	4667      	mov	r7, ip
 8000dae:	4a0a      	ldr	r2, [pc, #40]	; (8000dd8 <HAL_GPIO_Init+0x144>)
 8000db0:	67ee      	str	r6, [r5, #124]	; 0x7c
 8000db2:	6816      	ldr	r6, [r2, #0]
 8000db4:	9d01      	ldr	r5, [sp, #4]
 8000db6:	4335      	orrs	r5, r6
 8000db8:	02ff      	lsls	r7, r7, #11
 8000dba:	d401      	bmi.n	8000dc0 <HAL_GPIO_Init+0x12c>
 8000dbc:	0035      	movs	r5, r6
 8000dbe:	4025      	ands	r5, r4
 8000dc0:	4667      	mov	r7, ip
 8000dc2:	6015      	str	r5, [r2, #0]
 8000dc4:	6855      	ldr	r5, [r2, #4]
 8000dc6:	9e01      	ldr	r6, [sp, #4]
 8000dc8:	432e      	orrs	r6, r5
 8000dca:	02bf      	lsls	r7, r7, #10
 8000dcc:	d401      	bmi.n	8000dd2 <HAL_GPIO_Init+0x13e>
 8000dce:	4025      	ands	r5, r4
 8000dd0:	002e      	movs	r6, r5
 8000dd2:	6056      	str	r6, [r2, #4]
 8000dd4:	3301      	adds	r3, #1
 8000dd6:	e760      	b.n	8000c9a <HAL_GPIO_Init+0x6>
 8000dd8:	40021800 	.word	0x40021800
 8000ddc:	50000400 	.word	0x50000400
 8000de0:	50000800 	.word	0x50000800
 8000de4:	50000c00 	.word	0x50000c00
 8000de8:	40021804 	.word	0x40021804
 8000dec:	40021808 	.word	0x40021808

08000df0 <HAL_GPIO_ReadPin>:
 8000df0:	6900      	ldr	r0, [r0, #16]
 8000df2:	4008      	ands	r0, r1
 8000df4:	1e41      	subs	r1, r0, #1
 8000df6:	4188      	sbcs	r0, r1
 8000df8:	b2c0      	uxtb	r0, r0
 8000dfa:	4770      	bx	lr

08000dfc <HAL_GPIO_WritePin>:
 8000dfc:	2a00      	cmp	r2, #0
 8000dfe:	d001      	beq.n	8000e04 <HAL_GPIO_WritePin+0x8>
 8000e00:	6181      	str	r1, [r0, #24]
 8000e02:	4770      	bx	lr
 8000e04:	6281      	str	r1, [r0, #40]	; 0x28
 8000e06:	e7fc      	b.n	8000e02 <HAL_GPIO_WritePin+0x6>

08000e08 <HAL_GPIO_EXTI_IRQHandler>:
 8000e08:	b570      	push	{r4, r5, r6, lr}
 8000e0a:	4d08      	ldr	r5, [pc, #32]	; (8000e2c <HAL_GPIO_EXTI_IRQHandler+0x24>)
 8000e0c:	0004      	movs	r4, r0
 8000e0e:	68eb      	ldr	r3, [r5, #12]
 8000e10:	4218      	tst	r0, r3
 8000e12:	d002      	beq.n	8000e1a <HAL_GPIO_EXTI_IRQHandler+0x12>
 8000e14:	60e8      	str	r0, [r5, #12]
 8000e16:	f002 f96b 	bl	80030f0 <HAL_GPIO_EXTI_Rising_Callback>
 8000e1a:	692b      	ldr	r3, [r5, #16]
 8000e1c:	4223      	tst	r3, r4
 8000e1e:	d003      	beq.n	8000e28 <HAL_GPIO_EXTI_IRQHandler+0x20>
 8000e20:	0020      	movs	r0, r4
 8000e22:	612c      	str	r4, [r5, #16]
 8000e24:	f002 f938 	bl	8003098 <HAL_GPIO_EXTI_Falling_Callback>
 8000e28:	bd70      	pop	{r4, r5, r6, pc}
 8000e2a:	46c0      	nop			; (mov r8, r8)
 8000e2c:	40021800 	.word	0x40021800

08000e30 <HAL_I2C_Init>:
 8000e30:	b570      	push	{r4, r5, r6, lr}
 8000e32:	0004      	movs	r4, r0
 8000e34:	2001      	movs	r0, #1
 8000e36:	2c00      	cmp	r4, #0
 8000e38:	d03f      	beq.n	8000eba <HAL_I2C_Init+0x8a>
 8000e3a:	0025      	movs	r5, r4
 8000e3c:	3541      	adds	r5, #65	; 0x41
 8000e3e:	782b      	ldrb	r3, [r5, #0]
 8000e40:	b2da      	uxtb	r2, r3
 8000e42:	2b00      	cmp	r3, #0
 8000e44:	d105      	bne.n	8000e52 <HAL_I2C_Init+0x22>
 8000e46:	0023      	movs	r3, r4
 8000e48:	3340      	adds	r3, #64	; 0x40
 8000e4a:	0020      	movs	r0, r4
 8000e4c:	701a      	strb	r2, [r3, #0]
 8000e4e:	f002 f9cf 	bl	80031f0 <HAL_I2C_MspInit>
 8000e52:	2324      	movs	r3, #36	; 0x24
 8000e54:	2101      	movs	r1, #1
 8000e56:	702b      	strb	r3, [r5, #0]
 8000e58:	6823      	ldr	r3, [r4, #0]
 8000e5a:	68e0      	ldr	r0, [r4, #12]
 8000e5c:	681a      	ldr	r2, [r3, #0]
 8000e5e:	68a6      	ldr	r6, [r4, #8]
 8000e60:	438a      	bics	r2, r1
 8000e62:	601a      	str	r2, [r3, #0]
 8000e64:	6861      	ldr	r1, [r4, #4]
 8000e66:	4a1a      	ldr	r2, [pc, #104]	; (8000ed0 <HAL_I2C_Init+0xa0>)
 8000e68:	400a      	ands	r2, r1
 8000e6a:	611a      	str	r2, [r3, #16]
 8000e6c:	6899      	ldr	r1, [r3, #8]
 8000e6e:	4a19      	ldr	r2, [pc, #100]	; (8000ed4 <HAL_I2C_Init+0xa4>)
 8000e70:	4011      	ands	r1, r2
 8000e72:	6099      	str	r1, [r3, #8]
 8000e74:	2801      	cmp	r0, #1
 8000e76:	d121      	bne.n	8000ebc <HAL_I2C_Init+0x8c>
 8000e78:	2180      	movs	r1, #128	; 0x80
 8000e7a:	0209      	lsls	r1, r1, #8
 8000e7c:	4331      	orrs	r1, r6
 8000e7e:	6099      	str	r1, [r3, #8]
 8000e80:	6858      	ldr	r0, [r3, #4]
 8000e82:	4915      	ldr	r1, [pc, #84]	; (8000ed8 <HAL_I2C_Init+0xa8>)
 8000e84:	4301      	orrs	r1, r0
 8000e86:	6059      	str	r1, [r3, #4]
 8000e88:	68d9      	ldr	r1, [r3, #12]
 8000e8a:	2000      	movs	r0, #0
 8000e8c:	400a      	ands	r2, r1
 8000e8e:	60da      	str	r2, [r3, #12]
 8000e90:	6961      	ldr	r1, [r4, #20]
 8000e92:	6922      	ldr	r2, [r4, #16]
 8000e94:	430a      	orrs	r2, r1
 8000e96:	69a1      	ldr	r1, [r4, #24]
 8000e98:	0209      	lsls	r1, r1, #8
 8000e9a:	430a      	orrs	r2, r1
 8000e9c:	60da      	str	r2, [r3, #12]
 8000e9e:	6a21      	ldr	r1, [r4, #32]
 8000ea0:	69e2      	ldr	r2, [r4, #28]
 8000ea2:	430a      	orrs	r2, r1
 8000ea4:	601a      	str	r2, [r3, #0]
 8000ea6:	2201      	movs	r2, #1
 8000ea8:	6819      	ldr	r1, [r3, #0]
 8000eaa:	430a      	orrs	r2, r1
 8000eac:	601a      	str	r2, [r3, #0]
 8000eae:	2320      	movs	r3, #32
 8000eb0:	6460      	str	r0, [r4, #68]	; 0x44
 8000eb2:	702b      	strb	r3, [r5, #0]
 8000eb4:	6320      	str	r0, [r4, #48]	; 0x30
 8000eb6:	3442      	adds	r4, #66	; 0x42
 8000eb8:	7020      	strb	r0, [r4, #0]
 8000eba:	bd70      	pop	{r4, r5, r6, pc}
 8000ebc:	2184      	movs	r1, #132	; 0x84
 8000ebe:	0209      	lsls	r1, r1, #8
 8000ec0:	4331      	orrs	r1, r6
 8000ec2:	6099      	str	r1, [r3, #8]
 8000ec4:	2802      	cmp	r0, #2
 8000ec6:	d1db      	bne.n	8000e80 <HAL_I2C_Init+0x50>
 8000ec8:	2180      	movs	r1, #128	; 0x80
 8000eca:	0109      	lsls	r1, r1, #4
 8000ecc:	6059      	str	r1, [r3, #4]
 8000ece:	e7d7      	b.n	8000e80 <HAL_I2C_Init+0x50>
 8000ed0:	f0ffffff 	.word	0xf0ffffff
 8000ed4:	ffff7fff 	.word	0xffff7fff
 8000ed8:	02008000 	.word	0x02008000

08000edc <HAL_I2CEx_ConfigAnalogFilter>:
 8000edc:	b5f0      	push	{r4, r5, r6, r7, lr}
 8000ede:	0004      	movs	r4, r0
 8000ee0:	3441      	adds	r4, #65	; 0x41
 8000ee2:	7822      	ldrb	r2, [r4, #0]
 8000ee4:	0003      	movs	r3, r0
 8000ee6:	000f      	movs	r7, r1
 8000ee8:	2002      	movs	r0, #2
 8000eea:	b2d6      	uxtb	r6, r2
 8000eec:	2a20      	cmp	r2, #32
 8000eee:	d118      	bne.n	8000f22 <HAL_I2CEx_ConfigAnalogFilter+0x46>
 8000ef0:	001d      	movs	r5, r3
 8000ef2:	3540      	adds	r5, #64	; 0x40
 8000ef4:	782a      	ldrb	r2, [r5, #0]
 8000ef6:	2a01      	cmp	r2, #1
 8000ef8:	d013      	beq.n	8000f22 <HAL_I2CEx_ConfigAnalogFilter+0x46>
 8000efa:	2224      	movs	r2, #36	; 0x24
 8000efc:	7022      	strb	r2, [r4, #0]
 8000efe:	681b      	ldr	r3, [r3, #0]
 8000f00:	3a23      	subs	r2, #35	; 0x23
 8000f02:	6819      	ldr	r1, [r3, #0]
 8000f04:	4807      	ldr	r0, [pc, #28]	; (8000f24 <HAL_I2CEx_ConfigAnalogFilter+0x48>)
 8000f06:	4391      	bics	r1, r2
 8000f08:	6019      	str	r1, [r3, #0]
 8000f0a:	6819      	ldr	r1, [r3, #0]
 8000f0c:	4001      	ands	r1, r0
 8000f0e:	2000      	movs	r0, #0
 8000f10:	6019      	str	r1, [r3, #0]
 8000f12:	6819      	ldr	r1, [r3, #0]
 8000f14:	4339      	orrs	r1, r7
 8000f16:	6019      	str	r1, [r3, #0]
 8000f18:	6819      	ldr	r1, [r3, #0]
 8000f1a:	430a      	orrs	r2, r1
 8000f1c:	601a      	str	r2, [r3, #0]
 8000f1e:	7026      	strb	r6, [r4, #0]
 8000f20:	7028      	strb	r0, [r5, #0]
 8000f22:	bdf0      	pop	{r4, r5, r6, r7, pc}
 8000f24:	ffffefff 	.word	0xffffefff

08000f28 <HAL_I2CEx_ConfigDigitalFilter>:
 8000f28:	0002      	movs	r2, r0
 8000f2a:	b5f0      	push	{r4, r5, r6, r7, lr}
 8000f2c:	3241      	adds	r2, #65	; 0x41
 8000f2e:	7814      	ldrb	r4, [r2, #0]
 8000f30:	0003      	movs	r3, r0
 8000f32:	b2e5      	uxtb	r5, r4
 8000f34:	2002      	movs	r0, #2
 8000f36:	2c20      	cmp	r4, #32
 8000f38:	d117      	bne.n	8000f6a <HAL_I2CEx_ConfigDigitalFilter+0x42>
 8000f3a:	001c      	movs	r4, r3
 8000f3c:	3440      	adds	r4, #64	; 0x40
 8000f3e:	7826      	ldrb	r6, [r4, #0]
 8000f40:	2e01      	cmp	r6, #1
 8000f42:	d012      	beq.n	8000f6a <HAL_I2CEx_ConfigDigitalFilter+0x42>
 8000f44:	3022      	adds	r0, #34	; 0x22
 8000f46:	7010      	strb	r0, [r2, #0]
 8000f48:	681b      	ldr	r3, [r3, #0]
 8000f4a:	3823      	subs	r0, #35	; 0x23
 8000f4c:	681e      	ldr	r6, [r3, #0]
 8000f4e:	4f07      	ldr	r7, [pc, #28]	; (8000f6c <HAL_I2CEx_ConfigDigitalFilter+0x44>)
 8000f50:	4386      	bics	r6, r0
 8000f52:	601e      	str	r6, [r3, #0]
 8000f54:	681e      	ldr	r6, [r3, #0]
 8000f56:	0209      	lsls	r1, r1, #8
 8000f58:	403e      	ands	r6, r7
 8000f5a:	4331      	orrs	r1, r6
 8000f5c:	6019      	str	r1, [r3, #0]
 8000f5e:	6819      	ldr	r1, [r3, #0]
 8000f60:	4308      	orrs	r0, r1
 8000f62:	6018      	str	r0, [r3, #0]
 8000f64:	2000      	movs	r0, #0
 8000f66:	7015      	strb	r5, [r2, #0]
 8000f68:	7020      	strb	r0, [r4, #0]
 8000f6a:	bdf0      	pop	{r4, r5, r6, r7, pc}
 8000f6c:	fffff0ff 	.word	0xfffff0ff

08000f70 <HAL_PWR_EnterSTOPMode>:
 8000f70:	b510      	push	{r4, lr}
 8000f72:	4b0e      	ldr	r3, [pc, #56]	; (8000fac <HAL_PWR_EnterSTOPMode+0x3c>)
 8000f74:	2407      	movs	r4, #7
 8000f76:	2800      	cmp	r0, #0
 8000f78:	d011      	beq.n	8000f9e <HAL_PWR_EnterSTOPMode+0x2e>
 8000f7a:	2201      	movs	r2, #1
 8000f7c:	6818      	ldr	r0, [r3, #0]
 8000f7e:	43a0      	bics	r0, r4
 8000f80:	4302      	orrs	r2, r0
 8000f82:	601a      	str	r2, [r3, #0]
 8000f84:	2204      	movs	r2, #4
 8000f86:	4b0a      	ldr	r3, [pc, #40]	; (8000fb0 <HAL_PWR_EnterSTOPMode+0x40>)
 8000f88:	6918      	ldr	r0, [r3, #16]
 8000f8a:	4302      	orrs	r2, r0
 8000f8c:	611a      	str	r2, [r3, #16]
 8000f8e:	2901      	cmp	r1, #1
 8000f90:	d108      	bne.n	8000fa4 <HAL_PWR_EnterSTOPMode+0x34>
 8000f92:	bf30      	wfi
 8000f94:	2104      	movs	r1, #4
 8000f96:	691a      	ldr	r2, [r3, #16]
 8000f98:	438a      	bics	r2, r1
 8000f9a:	611a      	str	r2, [r3, #16]
 8000f9c:	bd10      	pop	{r4, pc}
 8000f9e:	681a      	ldr	r2, [r3, #0]
 8000fa0:	43a2      	bics	r2, r4
 8000fa2:	e7ee      	b.n	8000f82 <HAL_PWR_EnterSTOPMode+0x12>
 8000fa4:	bf40      	sev
 8000fa6:	bf20      	wfe
 8000fa8:	bf20      	wfe
 8000faa:	e7f3      	b.n	8000f94 <HAL_PWR_EnterSTOPMode+0x24>
 8000fac:	40007000 	.word	0x40007000
 8000fb0:	e000ed00 	.word	0xe000ed00

08000fb4 <HAL_PWREx_ControlVoltageScaling>:
 8000fb4:	b510      	push	{r4, lr}
 8000fb6:	4c11      	ldr	r4, [pc, #68]	; (8000ffc <HAL_PWREx_ControlVoltageScaling+0x48>)
 8000fb8:	4911      	ldr	r1, [pc, #68]	; (8001000 <HAL_PWREx_ControlVoltageScaling+0x4c>)
 8000fba:	6823      	ldr	r3, [r4, #0]
 8000fbc:	0002      	movs	r2, r0
 8000fbe:	400b      	ands	r3, r1
 8000fc0:	4303      	orrs	r3, r0
 8000fc2:	6023      	str	r3, [r4, #0]
 8000fc4:	2380      	movs	r3, #128	; 0x80
 8000fc6:	2000      	movs	r0, #0
 8000fc8:	009b      	lsls	r3, r3, #2
 8000fca:	429a      	cmp	r2, r3
 8000fcc:	d10e      	bne.n	8000fec <HAL_PWREx_ControlVoltageScaling+0x38>
 8000fce:	4b0d      	ldr	r3, [pc, #52]	; (8001004 <HAL_PWREx_ControlVoltageScaling+0x50>)
 8000fd0:	490d      	ldr	r1, [pc, #52]	; (8001008 <HAL_PWREx_ControlVoltageScaling+0x54>)
 8000fd2:	6818      	ldr	r0, [r3, #0]
 8000fd4:	2306      	movs	r3, #6
 8000fd6:	4358      	muls	r0, r3
 8000fd8:	f7ff f8b2 	bl	8000140 <__udivsi3>
 8000fdc:	2280      	movs	r2, #128	; 0x80
 8000fde:	1c43      	adds	r3, r0, #1
 8000fe0:	00d2      	lsls	r2, r2, #3
 8000fe2:	6961      	ldr	r1, [r4, #20]
 8000fe4:	0008      	movs	r0, r1
 8000fe6:	4010      	ands	r0, r2
 8000fe8:	4211      	tst	r1, r2
 8000fea:	d100      	bne.n	8000fee <HAL_PWREx_ControlVoltageScaling+0x3a>
 8000fec:	bd10      	pop	{r4, pc}
 8000fee:	2b00      	cmp	r3, #0
 8000ff0:	d001      	beq.n	8000ff6 <HAL_PWREx_ControlVoltageScaling+0x42>
 8000ff2:	3b01      	subs	r3, #1
 8000ff4:	e7f5      	b.n	8000fe2 <HAL_PWREx_ControlVoltageScaling+0x2e>
 8000ff6:	2003      	movs	r0, #3
 8000ff8:	e7f8      	b.n	8000fec <HAL_PWREx_ControlVoltageScaling+0x38>
 8000ffa:	46c0      	nop			; (mov r8, r8)
 8000ffc:	40007000 	.word	0x40007000
 8001000:	fffff9ff 	.word	0xfffff9ff
 8001004:	2000000c 	.word	0x2000000c
 8001008:	000f4240 	.word	0x000f4240

0800100c <HAL_RCC_OscConfig>:
 800100c:	b5f0      	push	{r4, r5, r6, r7, lr}
 800100e:	0004      	movs	r4, r0
 8001010:	b085      	sub	sp, #20
 8001012:	2800      	cmp	r0, #0
 8001014:	d023      	beq.n	800105e <HAL_RCC_OscConfig+0x52>
 8001016:	6803      	ldr	r3, [r0, #0]
 8001018:	07db      	lsls	r3, r3, #31
 800101a:	d410      	bmi.n	800103e <HAL_RCC_OscConfig+0x32>
 800101c:	6823      	ldr	r3, [r4, #0]
 800101e:	079b      	lsls	r3, r3, #30
 8001020:	d45e      	bmi.n	80010e0 <HAL_RCC_OscConfig+0xd4>
 8001022:	6823      	ldr	r3, [r4, #0]
 8001024:	071b      	lsls	r3, r3, #28
 8001026:	d500      	bpl.n	800102a <HAL_RCC_OscConfig+0x1e>
 8001028:	e0c3      	b.n	80011b2 <HAL_RCC_OscConfig+0x1a6>
 800102a:	6823      	ldr	r3, [r4, #0]
 800102c:	075b      	lsls	r3, r3, #29
 800102e:	d500      	bpl.n	8001032 <HAL_RCC_OscConfig+0x26>
 8001030:	e0f5      	b.n	800121e <HAL_RCC_OscConfig+0x212>
 8001032:	69e2      	ldr	r2, [r4, #28]
 8001034:	2a00      	cmp	r2, #0
 8001036:	d000      	beq.n	800103a <HAL_RCC_OscConfig+0x2e>
 8001038:	e17c      	b.n	8001334 <HAL_RCC_OscConfig+0x328>
 800103a:	2000      	movs	r0, #0
 800103c:	e029      	b.n	8001092 <HAL_RCC_OscConfig+0x86>
 800103e:	2238      	movs	r2, #56	; 0x38
 8001040:	4db0      	ldr	r5, [pc, #704]	; (8001304 <HAL_RCC_OscConfig+0x2f8>)
 8001042:	68ab      	ldr	r3, [r5, #8]
 8001044:	4013      	ands	r3, r2
 8001046:	68ea      	ldr	r2, [r5, #12]
 8001048:	2b10      	cmp	r3, #16
 800104a:	d10a      	bne.n	8001062 <HAL_RCC_OscConfig+0x56>
 800104c:	43d2      	mvns	r2, r2
 800104e:	0793      	lsls	r3, r2, #30
 8001050:	d109      	bne.n	8001066 <HAL_RCC_OscConfig+0x5a>
 8001052:	682b      	ldr	r3, [r5, #0]
 8001054:	039b      	lsls	r3, r3, #14
 8001056:	d5e1      	bpl.n	800101c <HAL_RCC_OscConfig+0x10>
 8001058:	6863      	ldr	r3, [r4, #4]
 800105a:	2b00      	cmp	r3, #0
 800105c:	d1de      	bne.n	800101c <HAL_RCC_OscConfig+0x10>
 800105e:	2001      	movs	r0, #1
 8001060:	e017      	b.n	8001092 <HAL_RCC_OscConfig+0x86>
 8001062:	2b08      	cmp	r3, #8
 8001064:	d0f5      	beq.n	8001052 <HAL_RCC_OscConfig+0x46>
 8001066:	2280      	movs	r2, #128	; 0x80
 8001068:	6863      	ldr	r3, [r4, #4]
 800106a:	0252      	lsls	r2, r2, #9
 800106c:	4293      	cmp	r3, r2
 800106e:	d112      	bne.n	8001096 <HAL_RCC_OscConfig+0x8a>
 8001070:	682a      	ldr	r2, [r5, #0]
 8001072:	4313      	orrs	r3, r2
 8001074:	602b      	str	r3, [r5, #0]
 8001076:	f7ff fb37 	bl	80006e8 <HAL_GetTick>
 800107a:	2780      	movs	r7, #128	; 0x80
 800107c:	0006      	movs	r6, r0
 800107e:	02bf      	lsls	r7, r7, #10
 8001080:	682b      	ldr	r3, [r5, #0]
 8001082:	423b      	tst	r3, r7
 8001084:	d1ca      	bne.n	800101c <HAL_RCC_OscConfig+0x10>
 8001086:	f7ff fb2f 	bl	80006e8 <HAL_GetTick>
 800108a:	1b80      	subs	r0, r0, r6
 800108c:	2864      	cmp	r0, #100	; 0x64
 800108e:	d9f7      	bls.n	8001080 <HAL_RCC_OscConfig+0x74>
 8001090:	2003      	movs	r0, #3
 8001092:	b005      	add	sp, #20
 8001094:	bdf0      	pop	{r4, r5, r6, r7, pc}
 8001096:	21a0      	movs	r1, #160	; 0xa0
 8001098:	02c9      	lsls	r1, r1, #11
 800109a:	428b      	cmp	r3, r1
 800109c:	d108      	bne.n	80010b0 <HAL_RCC_OscConfig+0xa4>
 800109e:	2380      	movs	r3, #128	; 0x80
 80010a0:	6829      	ldr	r1, [r5, #0]
 80010a2:	02db      	lsls	r3, r3, #11
 80010a4:	430b      	orrs	r3, r1
 80010a6:	602b      	str	r3, [r5, #0]
 80010a8:	682b      	ldr	r3, [r5, #0]
 80010aa:	431a      	orrs	r2, r3
 80010ac:	602a      	str	r2, [r5, #0]
 80010ae:	e7e2      	b.n	8001076 <HAL_RCC_OscConfig+0x6a>
 80010b0:	682a      	ldr	r2, [r5, #0]
 80010b2:	4995      	ldr	r1, [pc, #596]	; (8001308 <HAL_RCC_OscConfig+0x2fc>)
 80010b4:	400a      	ands	r2, r1
 80010b6:	602a      	str	r2, [r5, #0]
 80010b8:	682a      	ldr	r2, [r5, #0]
 80010ba:	4994      	ldr	r1, [pc, #592]	; (800130c <HAL_RCC_OscConfig+0x300>)
 80010bc:	400a      	ands	r2, r1
 80010be:	602a      	str	r2, [r5, #0]
 80010c0:	2b00      	cmp	r3, #0
 80010c2:	d1d8      	bne.n	8001076 <HAL_RCC_OscConfig+0x6a>
 80010c4:	f7ff fb10 	bl	80006e8 <HAL_GetTick>
 80010c8:	2780      	movs	r7, #128	; 0x80
 80010ca:	0006      	movs	r6, r0
 80010cc:	02bf      	lsls	r7, r7, #10
 80010ce:	682b      	ldr	r3, [r5, #0]
 80010d0:	423b      	tst	r3, r7
 80010d2:	d0a3      	beq.n	800101c <HAL_RCC_OscConfig+0x10>
 80010d4:	f7ff fb08 	bl	80006e8 <HAL_GetTick>
 80010d8:	1b80      	subs	r0, r0, r6
 80010da:	2864      	cmp	r0, #100	; 0x64
 80010dc:	d9f7      	bls.n	80010ce <HAL_RCC_OscConfig+0xc2>
 80010de:	e7d7      	b.n	8001090 <HAL_RCC_OscConfig+0x84>
 80010e0:	2338      	movs	r3, #56	; 0x38
 80010e2:	4d88      	ldr	r5, [pc, #544]	; (8001304 <HAL_RCC_OscConfig+0x2f8>)
 80010e4:	68aa      	ldr	r2, [r5, #8]
 80010e6:	4013      	ands	r3, r2
 80010e8:	68ea      	ldr	r2, [r5, #12]
 80010ea:	2b10      	cmp	r3, #16
 80010ec:	d128      	bne.n	8001140 <HAL_RCC_OscConfig+0x134>
 80010ee:	2103      	movs	r1, #3
 80010f0:	400a      	ands	r2, r1
 80010f2:	2a02      	cmp	r2, #2
 80010f4:	d126      	bne.n	8001144 <HAL_RCC_OscConfig+0x138>
 80010f6:	682a      	ldr	r2, [r5, #0]
 80010f8:	0552      	lsls	r2, r2, #21
 80010fa:	d502      	bpl.n	8001102 <HAL_RCC_OscConfig+0xf6>
 80010fc:	68e2      	ldr	r2, [r4, #12]
 80010fe:	2a00      	cmp	r2, #0
 8001100:	d0ad      	beq.n	800105e <HAL_RCC_OscConfig+0x52>
 8001102:	6869      	ldr	r1, [r5, #4]
 8001104:	6962      	ldr	r2, [r4, #20]
 8001106:	4882      	ldr	r0, [pc, #520]	; (8001310 <HAL_RCC_OscConfig+0x304>)
 8001108:	0212      	lsls	r2, r2, #8
 800110a:	4001      	ands	r1, r0
 800110c:	430a      	orrs	r2, r1
 800110e:	606a      	str	r2, [r5, #4]
 8001110:	2b00      	cmp	r3, #0
 8001112:	d10d      	bne.n	8001130 <HAL_RCC_OscConfig+0x124>
 8001114:	682b      	ldr	r3, [r5, #0]
 8001116:	4a7f      	ldr	r2, [pc, #508]	; (8001314 <HAL_RCC_OscConfig+0x308>)
 8001118:	4013      	ands	r3, r2
 800111a:	6922      	ldr	r2, [r4, #16]
 800111c:	4313      	orrs	r3, r2
 800111e:	602b      	str	r3, [r5, #0]
 8001120:	682b      	ldr	r3, [r5, #0]
 8001122:	4a7d      	ldr	r2, [pc, #500]	; (8001318 <HAL_RCC_OscConfig+0x30c>)
 8001124:	049b      	lsls	r3, r3, #18
 8001126:	0f5b      	lsrs	r3, r3, #29
 8001128:	40da      	lsrs	r2, r3
 800112a:	0013      	movs	r3, r2
 800112c:	4a7b      	ldr	r2, [pc, #492]	; (800131c <HAL_RCC_OscConfig+0x310>)
 800112e:	6013      	str	r3, [r2, #0]
 8001130:	4b7b      	ldr	r3, [pc, #492]	; (8001320 <HAL_RCC_OscConfig+0x314>)
 8001132:	6818      	ldr	r0, [r3, #0]
 8001134:	f7ff fa90 	bl	8000658 <HAL_InitTick>
 8001138:	2800      	cmp	r0, #0
 800113a:	d100      	bne.n	800113e <HAL_RCC_OscConfig+0x132>
 800113c:	e771      	b.n	8001022 <HAL_RCC_OscConfig+0x16>
 800113e:	e78e      	b.n	800105e <HAL_RCC_OscConfig+0x52>
 8001140:	2b00      	cmp	r3, #0
 8001142:	d0d8      	beq.n	80010f6 <HAL_RCC_OscConfig+0xea>
 8001144:	68e3      	ldr	r3, [r4, #12]
 8001146:	2b00      	cmp	r3, #0
 8001148:	d020      	beq.n	800118c <HAL_RCC_OscConfig+0x180>
 800114a:	682b      	ldr	r3, [r5, #0]
 800114c:	4a71      	ldr	r2, [pc, #452]	; (8001314 <HAL_RCC_OscConfig+0x308>)
 800114e:	2780      	movs	r7, #128	; 0x80
 8001150:	4013      	ands	r3, r2
 8001152:	6922      	ldr	r2, [r4, #16]
 8001154:	00ff      	lsls	r7, r7, #3
 8001156:	4313      	orrs	r3, r2
 8001158:	602b      	str	r3, [r5, #0]
 800115a:	2380      	movs	r3, #128	; 0x80
 800115c:	682a      	ldr	r2, [r5, #0]
 800115e:	005b      	lsls	r3, r3, #1
 8001160:	4313      	orrs	r3, r2
 8001162:	602b      	str	r3, [r5, #0]
 8001164:	f7ff fac0 	bl	80006e8 <HAL_GetTick>
 8001168:	0006      	movs	r6, r0
 800116a:	682b      	ldr	r3, [r5, #0]
 800116c:	423b      	tst	r3, r7
 800116e:	d007      	beq.n	8001180 <HAL_RCC_OscConfig+0x174>
 8001170:	686a      	ldr	r2, [r5, #4]
 8001172:	6963      	ldr	r3, [r4, #20]
 8001174:	4966      	ldr	r1, [pc, #408]	; (8001310 <HAL_RCC_OscConfig+0x304>)
 8001176:	021b      	lsls	r3, r3, #8
 8001178:	400a      	ands	r2, r1
 800117a:	4313      	orrs	r3, r2
 800117c:	606b      	str	r3, [r5, #4]
 800117e:	e750      	b.n	8001022 <HAL_RCC_OscConfig+0x16>
 8001180:	f7ff fab2 	bl	80006e8 <HAL_GetTick>
 8001184:	1b80      	subs	r0, r0, r6
 8001186:	2802      	cmp	r0, #2
 8001188:	d9ef      	bls.n	800116a <HAL_RCC_OscConfig+0x15e>
 800118a:	e781      	b.n	8001090 <HAL_RCC_OscConfig+0x84>
 800118c:	682b      	ldr	r3, [r5, #0]
 800118e:	4a65      	ldr	r2, [pc, #404]	; (8001324 <HAL_RCC_OscConfig+0x318>)
 8001190:	2780      	movs	r7, #128	; 0x80
 8001192:	4013      	ands	r3, r2
 8001194:	602b      	str	r3, [r5, #0]
 8001196:	f7ff faa7 	bl	80006e8 <HAL_GetTick>
 800119a:	0006      	movs	r6, r0
 800119c:	00ff      	lsls	r7, r7, #3
 800119e:	682b      	ldr	r3, [r5, #0]
 80011a0:	423b      	tst	r3, r7
 80011a2:	d100      	bne.n	80011a6 <HAL_RCC_OscConfig+0x19a>
 80011a4:	e73d      	b.n	8001022 <HAL_RCC_OscConfig+0x16>
 80011a6:	f7ff fa9f 	bl	80006e8 <HAL_GetTick>
 80011aa:	1b80      	subs	r0, r0, r6
 80011ac:	2802      	cmp	r0, #2
 80011ae:	d9f6      	bls.n	800119e <HAL_RCC_OscConfig+0x192>
 80011b0:	e76e      	b.n	8001090 <HAL_RCC_OscConfig+0x84>
 80011b2:	2138      	movs	r1, #56	; 0x38
 80011b4:	4b53      	ldr	r3, [pc, #332]	; (8001304 <HAL_RCC_OscConfig+0x2f8>)
 80011b6:	689a      	ldr	r2, [r3, #8]
 80011b8:	001d      	movs	r5, r3
 80011ba:	400a      	ands	r2, r1
 80011bc:	2a18      	cmp	r2, #24
 80011be:	d108      	bne.n	80011d2 <HAL_RCC_OscConfig+0x1c6>
 80011c0:	6e1b      	ldr	r3, [r3, #96]	; 0x60
 80011c2:	079b      	lsls	r3, r3, #30
 80011c4:	d400      	bmi.n	80011c8 <HAL_RCC_OscConfig+0x1bc>
 80011c6:	e730      	b.n	800102a <HAL_RCC_OscConfig+0x1e>
 80011c8:	69a3      	ldr	r3, [r4, #24]
 80011ca:	2b00      	cmp	r3, #0
 80011cc:	d000      	beq.n	80011d0 <HAL_RCC_OscConfig+0x1c4>
 80011ce:	e72c      	b.n	800102a <HAL_RCC_OscConfig+0x1e>
 80011d0:	e745      	b.n	800105e <HAL_RCC_OscConfig+0x52>
 80011d2:	69a2      	ldr	r2, [r4, #24]
 80011d4:	2301      	movs	r3, #1
 80011d6:	2a00      	cmp	r2, #0
 80011d8:	d010      	beq.n	80011fc <HAL_RCC_OscConfig+0x1f0>
 80011da:	6e2a      	ldr	r2, [r5, #96]	; 0x60
 80011dc:	2702      	movs	r7, #2
 80011de:	4313      	orrs	r3, r2
 80011e0:	662b      	str	r3, [r5, #96]	; 0x60
 80011e2:	f7ff fa81 	bl	80006e8 <HAL_GetTick>
 80011e6:	0006      	movs	r6, r0
 80011e8:	6e2b      	ldr	r3, [r5, #96]	; 0x60
 80011ea:	423b      	tst	r3, r7
 80011ec:	d000      	beq.n	80011f0 <HAL_RCC_OscConfig+0x1e4>
 80011ee:	e71c      	b.n	800102a <HAL_RCC_OscConfig+0x1e>
 80011f0:	f7ff fa7a 	bl	80006e8 <HAL_GetTick>
 80011f4:	1b80      	subs	r0, r0, r6
 80011f6:	2802      	cmp	r0, #2
 80011f8:	d9f6      	bls.n	80011e8 <HAL_RCC_OscConfig+0x1dc>
 80011fa:	e749      	b.n	8001090 <HAL_RCC_OscConfig+0x84>
 80011fc:	6e2a      	ldr	r2, [r5, #96]	; 0x60
 80011fe:	2702      	movs	r7, #2
 8001200:	439a      	bics	r2, r3
 8001202:	662a      	str	r2, [r5, #96]	; 0x60
 8001204:	f7ff fa70 	bl	80006e8 <HAL_GetTick>
 8001208:	0006      	movs	r6, r0
 800120a:	6e2b      	ldr	r3, [r5, #96]	; 0x60
 800120c:	423b      	tst	r3, r7
 800120e:	d100      	bne.n	8001212 <HAL_RCC_OscConfig+0x206>
 8001210:	e70b      	b.n	800102a <HAL_RCC_OscConfig+0x1e>
 8001212:	f7ff fa69 	bl	80006e8 <HAL_GetTick>
 8001216:	1b80      	subs	r0, r0, r6
 8001218:	2802      	cmp	r0, #2
 800121a:	d9f6      	bls.n	800120a <HAL_RCC_OscConfig+0x1fe>
 800121c:	e738      	b.n	8001090 <HAL_RCC_OscConfig+0x84>
 800121e:	2138      	movs	r1, #56	; 0x38
 8001220:	4b38      	ldr	r3, [pc, #224]	; (8001304 <HAL_RCC_OscConfig+0x2f8>)
 8001222:	689a      	ldr	r2, [r3, #8]
 8001224:	001d      	movs	r5, r3
 8001226:	400a      	ands	r2, r1
 8001228:	2a20      	cmp	r2, #32
 800122a:	d108      	bne.n	800123e <HAL_RCC_OscConfig+0x232>
 800122c:	6ddb      	ldr	r3, [r3, #92]	; 0x5c
 800122e:	079b      	lsls	r3, r3, #30
 8001230:	d400      	bmi.n	8001234 <HAL_RCC_OscConfig+0x228>
 8001232:	e6fe      	b.n	8001032 <HAL_RCC_OscConfig+0x26>
 8001234:	68a3      	ldr	r3, [r4, #8]
 8001236:	2b00      	cmp	r3, #0
 8001238:	d000      	beq.n	800123c <HAL_RCC_OscConfig+0x230>
 800123a:	e6fa      	b.n	8001032 <HAL_RCC_OscConfig+0x26>
 800123c:	e70f      	b.n	800105e <HAL_RCC_OscConfig+0x52>
 800123e:	2280      	movs	r2, #128	; 0x80
 8001240:	2100      	movs	r1, #0
 8001242:	6bdb      	ldr	r3, [r3, #60]	; 0x3c
 8001244:	0552      	lsls	r2, r2, #21
 8001246:	9100      	str	r1, [sp, #0]
 8001248:	4213      	tst	r3, r2
 800124a:	d108      	bne.n	800125e <HAL_RCC_OscConfig+0x252>
 800124c:	6beb      	ldr	r3, [r5, #60]	; 0x3c
 800124e:	4313      	orrs	r3, r2
 8001250:	63eb      	str	r3, [r5, #60]	; 0x3c
 8001252:	6beb      	ldr	r3, [r5, #60]	; 0x3c
 8001254:	4013      	ands	r3, r2
 8001256:	9303      	str	r3, [sp, #12]
 8001258:	9b03      	ldr	r3, [sp, #12]
 800125a:	2301      	movs	r3, #1
 800125c:	9300      	str	r3, [sp, #0]
 800125e:	2780      	movs	r7, #128	; 0x80
 8001260:	4e31      	ldr	r6, [pc, #196]	; (8001328 <HAL_RCC_OscConfig+0x31c>)
 8001262:	007f      	lsls	r7, r7, #1
 8001264:	6833      	ldr	r3, [r6, #0]
 8001266:	423b      	tst	r3, r7
 8001268:	d015      	beq.n	8001296 <HAL_RCC_OscConfig+0x28a>
 800126a:	68a3      	ldr	r3, [r4, #8]
 800126c:	2b01      	cmp	r3, #1
 800126e:	d122      	bne.n	80012b6 <HAL_RCC_OscConfig+0x2aa>
 8001270:	6dea      	ldr	r2, [r5, #92]	; 0x5c
 8001272:	4313      	orrs	r3, r2
 8001274:	65eb      	str	r3, [r5, #92]	; 0x5c
 8001276:	f7ff fa37 	bl	80006e8 <HAL_GetTick>
 800127a:	2702      	movs	r7, #2
 800127c:	0006      	movs	r6, r0
 800127e:	6deb      	ldr	r3, [r5, #92]	; 0x5c
 8001280:	423b      	tst	r3, r7
 8001282:	d038      	beq.n	80012f6 <HAL_RCC_OscConfig+0x2ea>
 8001284:	9b00      	ldr	r3, [sp, #0]
 8001286:	2b01      	cmp	r3, #1
 8001288:	d000      	beq.n	800128c <HAL_RCC_OscConfig+0x280>
 800128a:	e6d2      	b.n	8001032 <HAL_RCC_OscConfig+0x26>
 800128c:	6beb      	ldr	r3, [r5, #60]	; 0x3c
 800128e:	4a27      	ldr	r2, [pc, #156]	; (800132c <HAL_RCC_OscConfig+0x320>)
 8001290:	4013      	ands	r3, r2
 8001292:	63eb      	str	r3, [r5, #60]	; 0x3c
 8001294:	e6cd      	b.n	8001032 <HAL_RCC_OscConfig+0x26>
 8001296:	6833      	ldr	r3, [r6, #0]
 8001298:	433b      	orrs	r3, r7
 800129a:	6033      	str	r3, [r6, #0]
 800129c:	f7ff fa24 	bl	80006e8 <HAL_GetTick>
 80012a0:	9001      	str	r0, [sp, #4]
 80012a2:	6833      	ldr	r3, [r6, #0]
 80012a4:	423b      	tst	r3, r7
 80012a6:	d1e0      	bne.n	800126a <HAL_RCC_OscConfig+0x25e>
 80012a8:	f7ff fa1e 	bl	80006e8 <HAL_GetTick>
 80012ac:	9b01      	ldr	r3, [sp, #4]
 80012ae:	1ac0      	subs	r0, r0, r3
 80012b0:	2802      	cmp	r0, #2
 80012b2:	d9f6      	bls.n	80012a2 <HAL_RCC_OscConfig+0x296>
 80012b4:	e6ec      	b.n	8001090 <HAL_RCC_OscConfig+0x84>
 80012b6:	6dea      	ldr	r2, [r5, #92]	; 0x5c
 80012b8:	2b05      	cmp	r3, #5
 80012ba:	d105      	bne.n	80012c8 <HAL_RCC_OscConfig+0x2bc>
 80012bc:	3b01      	subs	r3, #1
 80012be:	4313      	orrs	r3, r2
 80012c0:	65eb      	str	r3, [r5, #92]	; 0x5c
 80012c2:	6dea      	ldr	r2, [r5, #92]	; 0x5c
 80012c4:	2301      	movs	r3, #1
 80012c6:	e7d4      	b.n	8001272 <HAL_RCC_OscConfig+0x266>
 80012c8:	2101      	movs	r1, #1
 80012ca:	438a      	bics	r2, r1
 80012cc:	65ea      	str	r2, [r5, #92]	; 0x5c
 80012ce:	6dea      	ldr	r2, [r5, #92]	; 0x5c
 80012d0:	3103      	adds	r1, #3
 80012d2:	438a      	bics	r2, r1
 80012d4:	65ea      	str	r2, [r5, #92]	; 0x5c
 80012d6:	2b00      	cmp	r3, #0
 80012d8:	d1cd      	bne.n	8001276 <HAL_RCC_OscConfig+0x26a>
 80012da:	f7ff fa05 	bl	80006e8 <HAL_GetTick>
 80012de:	2702      	movs	r7, #2
 80012e0:	0006      	movs	r6, r0
 80012e2:	6deb      	ldr	r3, [r5, #92]	; 0x5c
 80012e4:	423b      	tst	r3, r7
 80012e6:	d0cd      	beq.n	8001284 <HAL_RCC_OscConfig+0x278>
 80012e8:	f7ff f9fe 	bl	80006e8 <HAL_GetTick>
 80012ec:	4b10      	ldr	r3, [pc, #64]	; (8001330 <HAL_RCC_OscConfig+0x324>)
 80012ee:	1b80      	subs	r0, r0, r6
 80012f0:	4298      	cmp	r0, r3
 80012f2:	d9f6      	bls.n	80012e2 <HAL_RCC_OscConfig+0x2d6>
 80012f4:	e6cc      	b.n	8001090 <HAL_RCC_OscConfig+0x84>
 80012f6:	f7ff f9f7 	bl	80006e8 <HAL_GetTick>
 80012fa:	4b0d      	ldr	r3, [pc, #52]	; (8001330 <HAL_RCC_OscConfig+0x324>)
 80012fc:	1b80      	subs	r0, r0, r6
 80012fe:	4298      	cmp	r0, r3
 8001300:	d9bd      	bls.n	800127e <HAL_RCC_OscConfig+0x272>
 8001302:	e6c5      	b.n	8001090 <HAL_RCC_OscConfig+0x84>
 8001304:	40021000 	.word	0x40021000
 8001308:	fffeffff 	.word	0xfffeffff
 800130c:	fffbffff 	.word	0xfffbffff
 8001310:	ffff80ff 	.word	0xffff80ff
 8001314:	ffffc7ff 	.word	0xffffc7ff
 8001318:	00f42400 	.word	0x00f42400
 800131c:	2000000c 	.word	0x2000000c
 8001320:	20000004 	.word	0x20000004
 8001324:	fffffeff 	.word	0xfffffeff
 8001328:	40007000 	.word	0x40007000
 800132c:	efffffff 	.word	0xefffffff
 8001330:	00001388 	.word	0x00001388
 8001334:	2038      	movs	r0, #56	; 0x38
 8001336:	4b44      	ldr	r3, [pc, #272]	; (8001448 <HAL_RCC_OscConfig+0x43c>)
 8001338:	6899      	ldr	r1, [r3, #8]
 800133a:	001d      	movs	r5, r3
 800133c:	4001      	ands	r1, r0
 800133e:	2910      	cmp	r1, #16
 8001340:	d054      	beq.n	80013ec <HAL_RCC_OscConfig+0x3e0>
 8001342:	681b      	ldr	r3, [r3, #0]
 8001344:	4941      	ldr	r1, [pc, #260]	; (800144c <HAL_RCC_OscConfig+0x440>)
 8001346:	400b      	ands	r3, r1
 8001348:	602b      	str	r3, [r5, #0]
 800134a:	2a02      	cmp	r2, #2
 800134c:	d137      	bne.n	80013be <HAL_RCC_OscConfig+0x3b2>
 800134e:	f7ff f9cb 	bl	80006e8 <HAL_GetTick>
 8001352:	2780      	movs	r7, #128	; 0x80
 8001354:	0006      	movs	r6, r0
 8001356:	04bf      	lsls	r7, r7, #18
 8001358:	682b      	ldr	r3, [r5, #0]
 800135a:	423b      	tst	r3, r7
 800135c:	d129      	bne.n	80013b2 <HAL_RCC_OscConfig+0x3a6>
 800135e:	6a61      	ldr	r1, [r4, #36]	; 0x24
 8001360:	6a23      	ldr	r3, [r4, #32]
 8001362:	68ea      	ldr	r2, [r5, #12]
 8001364:	430b      	orrs	r3, r1
 8001366:	493a      	ldr	r1, [pc, #232]	; (8001450 <HAL_RCC_OscConfig+0x444>)
 8001368:	2680      	movs	r6, #128	; 0x80
 800136a:	400a      	ands	r2, r1
 800136c:	4313      	orrs	r3, r2
 800136e:	6ae2      	ldr	r2, [r4, #44]	; 0x2c
 8001370:	04b6      	lsls	r6, r6, #18
 8001372:	4313      	orrs	r3, r2
 8001374:	6b22      	ldr	r2, [r4, #48]	; 0x30
 8001376:	4313      	orrs	r3, r2
 8001378:	6b62      	ldr	r2, [r4, #52]	; 0x34
 800137a:	4313      	orrs	r3, r2
 800137c:	6aa2      	ldr	r2, [r4, #40]	; 0x28
 800137e:	0212      	lsls	r2, r2, #8
 8001380:	4313      	orrs	r3, r2
 8001382:	60eb      	str	r3, [r5, #12]
 8001384:	2380      	movs	r3, #128	; 0x80
 8001386:	682a      	ldr	r2, [r5, #0]
 8001388:	045b      	lsls	r3, r3, #17
 800138a:	4313      	orrs	r3, r2
 800138c:	602b      	str	r3, [r5, #0]
 800138e:	2380      	movs	r3, #128	; 0x80
 8001390:	68ea      	ldr	r2, [r5, #12]
 8001392:	055b      	lsls	r3, r3, #21
 8001394:	4313      	orrs	r3, r2
 8001396:	60eb      	str	r3, [r5, #12]
 8001398:	f7ff f9a6 	bl	80006e8 <HAL_GetTick>
 800139c:	0004      	movs	r4, r0
 800139e:	682b      	ldr	r3, [r5, #0]
 80013a0:	4233      	tst	r3, r6
 80013a2:	d000      	beq.n	80013a6 <HAL_RCC_OscConfig+0x39a>
 80013a4:	e649      	b.n	800103a <HAL_RCC_OscConfig+0x2e>
 80013a6:	f7ff f99f 	bl	80006e8 <HAL_GetTick>
 80013aa:	1b00      	subs	r0, r0, r4
 80013ac:	2802      	cmp	r0, #2
 80013ae:	d9f6      	bls.n	800139e <HAL_RCC_OscConfig+0x392>
 80013b0:	e66e      	b.n	8001090 <HAL_RCC_OscConfig+0x84>
 80013b2:	f7ff f999 	bl	80006e8 <HAL_GetTick>
 80013b6:	1b80      	subs	r0, r0, r6
 80013b8:	2802      	cmp	r0, #2
 80013ba:	d9cd      	bls.n	8001358 <HAL_RCC_OscConfig+0x34c>
 80013bc:	e668      	b.n	8001090 <HAL_RCC_OscConfig+0x84>
 80013be:	2203      	movs	r2, #3
 80013c0:	68eb      	ldr	r3, [r5, #12]
 80013c2:	2680      	movs	r6, #128	; 0x80
 80013c4:	4393      	bics	r3, r2
 80013c6:	60eb      	str	r3, [r5, #12]
 80013c8:	68eb      	ldr	r3, [r5, #12]
 80013ca:	4a22      	ldr	r2, [pc, #136]	; (8001454 <HAL_RCC_OscConfig+0x448>)
 80013cc:	04b6      	lsls	r6, r6, #18
 80013ce:	4013      	ands	r3, r2
 80013d0:	60eb      	str	r3, [r5, #12]
 80013d2:	f7ff f989 	bl	80006e8 <HAL_GetTick>
 80013d6:	0004      	movs	r4, r0
 80013d8:	682b      	ldr	r3, [r5, #0]
 80013da:	4233      	tst	r3, r6
 80013dc:	d100      	bne.n	80013e0 <HAL_RCC_OscConfig+0x3d4>
 80013de:	e62c      	b.n	800103a <HAL_RCC_OscConfig+0x2e>
 80013e0:	f7ff f982 	bl	80006e8 <HAL_GetTick>
 80013e4:	1b00      	subs	r0, r0, r4
 80013e6:	2802      	cmp	r0, #2
 80013e8:	d9f6      	bls.n	80013d8 <HAL_RCC_OscConfig+0x3cc>
 80013ea:	e651      	b.n	8001090 <HAL_RCC_OscConfig+0x84>
 80013ec:	2a01      	cmp	r2, #1
 80013ee:	d100      	bne.n	80013f2 <HAL_RCC_OscConfig+0x3e6>
 80013f0:	e635      	b.n	800105e <HAL_RCC_OscConfig+0x52>
 80013f2:	2203      	movs	r2, #3
 80013f4:	68db      	ldr	r3, [r3, #12]
 80013f6:	6a21      	ldr	r1, [r4, #32]
 80013f8:	401a      	ands	r2, r3
 80013fa:	428a      	cmp	r2, r1
 80013fc:	d000      	beq.n	8001400 <HAL_RCC_OscConfig+0x3f4>
 80013fe:	e62e      	b.n	800105e <HAL_RCC_OscConfig+0x52>
 8001400:	2270      	movs	r2, #112	; 0x70
 8001402:	6a61      	ldr	r1, [r4, #36]	; 0x24
 8001404:	401a      	ands	r2, r3
 8001406:	428a      	cmp	r2, r1
 8001408:	d000      	beq.n	800140c <HAL_RCC_OscConfig+0x400>
 800140a:	e628      	b.n	800105e <HAL_RCC_OscConfig+0x52>
 800140c:	21fe      	movs	r1, #254	; 0xfe
 800140e:	6aa2      	ldr	r2, [r4, #40]	; 0x28
 8001410:	01c9      	lsls	r1, r1, #7
 8001412:	4019      	ands	r1, r3
 8001414:	0212      	lsls	r2, r2, #8
 8001416:	4291      	cmp	r1, r2
 8001418:	d000      	beq.n	800141c <HAL_RCC_OscConfig+0x410>
 800141a:	e620      	b.n	800105e <HAL_RCC_OscConfig+0x52>
 800141c:	22f8      	movs	r2, #248	; 0xf8
 800141e:	6ae1      	ldr	r1, [r4, #44]	; 0x2c
 8001420:	0392      	lsls	r2, r2, #14
 8001422:	401a      	ands	r2, r3
 8001424:	428a      	cmp	r2, r1
 8001426:	d000      	beq.n	800142a <HAL_RCC_OscConfig+0x41e>
 8001428:	e619      	b.n	800105e <HAL_RCC_OscConfig+0x52>
 800142a:	22e0      	movs	r2, #224	; 0xe0
 800142c:	6b21      	ldr	r1, [r4, #48]	; 0x30
 800142e:	0512      	lsls	r2, r2, #20
 8001430:	401a      	ands	r2, r3
 8001432:	428a      	cmp	r2, r1
 8001434:	d000      	beq.n	8001438 <HAL_RCC_OscConfig+0x42c>
 8001436:	e612      	b.n	800105e <HAL_RCC_OscConfig+0x52>
 8001438:	6b62      	ldr	r2, [r4, #52]	; 0x34
 800143a:	0f5b      	lsrs	r3, r3, #29
 800143c:	075b      	lsls	r3, r3, #29
 800143e:	4293      	cmp	r3, r2
 8001440:	d100      	bne.n	8001444 <HAL_RCC_OscConfig+0x438>
 8001442:	e5fa      	b.n	800103a <HAL_RCC_OscConfig+0x2e>
 8001444:	e60b      	b.n	800105e <HAL_RCC_OscConfig+0x52>
 8001446:	46c0      	nop			; (mov r8, r8)
 8001448:	40021000 	.word	0x40021000
 800144c:	feffffff 	.word	0xfeffffff
 8001450:	11c1808c 	.word	0x11c1808c
 8001454:	eefeffff 	.word	0xeefeffff

08001458 <HAL_RCC_GetSysClockFreq>:
 8001458:	2338      	movs	r3, #56	; 0x38
 800145a:	4a1e      	ldr	r2, [pc, #120]	; (80014d4 <HAL_RCC_GetSysClockFreq+0x7c>)
 800145c:	b570      	push	{r4, r5, r6, lr}
 800145e:	6891      	ldr	r1, [r2, #8]
 8001460:	0014      	movs	r4, r2
 8001462:	4219      	tst	r1, r3
 8001464:	d105      	bne.n	8001472 <HAL_RCC_GetSysClockFreq+0x1a>
 8001466:	6813      	ldr	r3, [r2, #0]
 8001468:	481b      	ldr	r0, [pc, #108]	; (80014d8 <HAL_RCC_GetSysClockFreq+0x80>)
 800146a:	049b      	lsls	r3, r3, #18
 800146c:	0f5b      	lsrs	r3, r3, #29
 800146e:	40d8      	lsrs	r0, r3
 8001470:	bd70      	pop	{r4, r5, r6, pc}
 8001472:	6891      	ldr	r1, [r2, #8]
 8001474:	4019      	ands	r1, r3
 8001476:	2908      	cmp	r1, #8
 8001478:	d027      	beq.n	80014ca <HAL_RCC_GetSysClockFreq+0x72>
 800147a:	6891      	ldr	r1, [r2, #8]
 800147c:	4019      	ands	r1, r3
 800147e:	2910      	cmp	r1, #16
 8001480:	d117      	bne.n	80014b2 <HAL_RCC_GetSysClockFreq+0x5a>
 8001482:	68d3      	ldr	r3, [r2, #12]
 8001484:	68d1      	ldr	r1, [r2, #12]
 8001486:	43db      	mvns	r3, r3
 8001488:	227f      	movs	r2, #127	; 0x7f
 800148a:	68e5      	ldr	r5, [r4, #12]
 800148c:	0649      	lsls	r1, r1, #25
 800148e:	0f49      	lsrs	r1, r1, #29
 8001490:	0a2d      	lsrs	r5, r5, #8
 8001492:	3101      	adds	r1, #1
 8001494:	4015      	ands	r5, r2
 8001496:	079b      	lsls	r3, r3, #30
 8001498:	d109      	bne.n	80014ae <HAL_RCC_GetSysClockFreq+0x56>
 800149a:	4810      	ldr	r0, [pc, #64]	; (80014dc <HAL_RCC_GetSysClockFreq+0x84>)
 800149c:	f7fe fe50 	bl	8000140 <__udivsi3>
 80014a0:	68e1      	ldr	r1, [r4, #12]
 80014a2:	4368      	muls	r0, r5
 80014a4:	0f49      	lsrs	r1, r1, #29
 80014a6:	3101      	adds	r1, #1
 80014a8:	f7fe fe4a 	bl	8000140 <__udivsi3>
 80014ac:	e7e0      	b.n	8001470 <HAL_RCC_GetSysClockFreq+0x18>
 80014ae:	480a      	ldr	r0, [pc, #40]	; (80014d8 <HAL_RCC_GetSysClockFreq+0x80>)
 80014b0:	e7f4      	b.n	800149c <HAL_RCC_GetSysClockFreq+0x44>
 80014b2:	6891      	ldr	r1, [r2, #8]
 80014b4:	4019      	ands	r1, r3
 80014b6:	2920      	cmp	r1, #32
 80014b8:	d009      	beq.n	80014ce <HAL_RCC_GetSysClockFreq+0x76>
 80014ba:	6892      	ldr	r2, [r2, #8]
 80014bc:	2000      	movs	r0, #0
 80014be:	4013      	ands	r3, r2
 80014c0:	2b18      	cmp	r3, #24
 80014c2:	d1d5      	bne.n	8001470 <HAL_RCC_GetSysClockFreq+0x18>
 80014c4:	20fa      	movs	r0, #250	; 0xfa
 80014c6:	01c0      	lsls	r0, r0, #7
 80014c8:	e7d2      	b.n	8001470 <HAL_RCC_GetSysClockFreq+0x18>
 80014ca:	4804      	ldr	r0, [pc, #16]	; (80014dc <HAL_RCC_GetSysClockFreq+0x84>)
 80014cc:	e7d0      	b.n	8001470 <HAL_RCC_GetSysClockFreq+0x18>
 80014ce:	2080      	movs	r0, #128	; 0x80
 80014d0:	0200      	lsls	r0, r0, #8
 80014d2:	e7cd      	b.n	8001470 <HAL_RCC_GetSysClockFreq+0x18>
 80014d4:	40021000 	.word	0x40021000
 80014d8:	00f42400 	.word	0x00f42400
 80014dc:	007a1200 	.word	0x007a1200

080014e0 <HAL_RCC_ClockConfig>:
 80014e0:	b5f7      	push	{r0, r1, r2, r4, r5, r6, r7, lr}
 80014e2:	0005      	movs	r5, r0
 80014e4:	000e      	movs	r6, r1
 80014e6:	2800      	cmp	r0, #0
 80014e8:	d101      	bne.n	80014ee <HAL_RCC_ClockConfig+0xe>
 80014ea:	2001      	movs	r0, #1
 80014ec:	bdfe      	pop	{r1, r2, r3, r4, r5, r6, r7, pc}
 80014ee:	2707      	movs	r7, #7
 80014f0:	4c4a      	ldr	r4, [pc, #296]	; (800161c <HAL_RCC_ClockConfig+0x13c>)
 80014f2:	6823      	ldr	r3, [r4, #0]
 80014f4:	403b      	ands	r3, r7
 80014f6:	428b      	cmp	r3, r1
 80014f8:	d32a      	bcc.n	8001550 <HAL_RCC_ClockConfig+0x70>
 80014fa:	6829      	ldr	r1, [r5, #0]
 80014fc:	078b      	lsls	r3, r1, #30
 80014fe:	d43b      	bmi.n	8001578 <HAL_RCC_ClockConfig+0x98>
 8001500:	07cb      	lsls	r3, r1, #31
 8001502:	d448      	bmi.n	8001596 <HAL_RCC_ClockConfig+0xb6>
 8001504:	2707      	movs	r7, #7
 8001506:	6823      	ldr	r3, [r4, #0]
 8001508:	403b      	ands	r3, r7
 800150a:	42b3      	cmp	r3, r6
 800150c:	d90a      	bls.n	8001524 <HAL_RCC_ClockConfig+0x44>
 800150e:	6823      	ldr	r3, [r4, #0]
 8001510:	43bb      	bics	r3, r7
 8001512:	4333      	orrs	r3, r6
 8001514:	6023      	str	r3, [r4, #0]
 8001516:	f7ff f8e7 	bl	80006e8 <HAL_GetTick>
 800151a:	9001      	str	r0, [sp, #4]
 800151c:	6823      	ldr	r3, [r4, #0]
 800151e:	403b      	ands	r3, r7
 8001520:	42b3      	cmp	r3, r6
 8001522:	d16b      	bne.n	80015fc <HAL_RCC_ClockConfig+0x11c>
 8001524:	682b      	ldr	r3, [r5, #0]
 8001526:	4c3e      	ldr	r4, [pc, #248]	; (8001620 <HAL_RCC_ClockConfig+0x140>)
 8001528:	075b      	lsls	r3, r3, #29
 800152a:	d46f      	bmi.n	800160c <HAL_RCC_ClockConfig+0x12c>
 800152c:	f7ff ff94 	bl	8001458 <HAL_RCC_GetSysClockFreq>
 8001530:	68a3      	ldr	r3, [r4, #8]
 8001532:	4a3c      	ldr	r2, [pc, #240]	; (8001624 <HAL_RCC_ClockConfig+0x144>)
 8001534:	051b      	lsls	r3, r3, #20
 8001536:	0f1b      	lsrs	r3, r3, #28
 8001538:	009b      	lsls	r3, r3, #2
 800153a:	589b      	ldr	r3, [r3, r2]
 800153c:	221f      	movs	r2, #31
 800153e:	4013      	ands	r3, r2
 8001540:	40d8      	lsrs	r0, r3
 8001542:	4b39      	ldr	r3, [pc, #228]	; (8001628 <HAL_RCC_ClockConfig+0x148>)
 8001544:	6018      	str	r0, [r3, #0]
 8001546:	4b39      	ldr	r3, [pc, #228]	; (800162c <HAL_RCC_ClockConfig+0x14c>)
 8001548:	6818      	ldr	r0, [r3, #0]
 800154a:	f7ff f885 	bl	8000658 <HAL_InitTick>
 800154e:	e7cd      	b.n	80014ec <HAL_RCC_ClockConfig+0xc>
 8001550:	6823      	ldr	r3, [r4, #0]
 8001552:	43bb      	bics	r3, r7
 8001554:	430b      	orrs	r3, r1
 8001556:	6023      	str	r3, [r4, #0]
 8001558:	f7ff f8c6 	bl	80006e8 <HAL_GetTick>
 800155c:	9001      	str	r0, [sp, #4]
 800155e:	6823      	ldr	r3, [r4, #0]
 8001560:	403b      	ands	r3, r7
 8001562:	42b3      	cmp	r3, r6
 8001564:	d0c9      	beq.n	80014fa <HAL_RCC_ClockConfig+0x1a>
 8001566:	f7ff f8bf 	bl	80006e8 <HAL_GetTick>
 800156a:	9b01      	ldr	r3, [sp, #4]
 800156c:	1ac0      	subs	r0, r0, r3
 800156e:	4b30      	ldr	r3, [pc, #192]	; (8001630 <HAL_RCC_ClockConfig+0x150>)
 8001570:	4298      	cmp	r0, r3
 8001572:	d9f4      	bls.n	800155e <HAL_RCC_ClockConfig+0x7e>
 8001574:	2003      	movs	r0, #3
 8001576:	e7b9      	b.n	80014ec <HAL_RCC_ClockConfig+0xc>
 8001578:	4a29      	ldr	r2, [pc, #164]	; (8001620 <HAL_RCC_ClockConfig+0x140>)
 800157a:	074b      	lsls	r3, r1, #29
 800157c:	d504      	bpl.n	8001588 <HAL_RCC_ClockConfig+0xa8>
 800157e:	23e0      	movs	r3, #224	; 0xe0
 8001580:	6890      	ldr	r0, [r2, #8]
 8001582:	01db      	lsls	r3, r3, #7
 8001584:	4303      	orrs	r3, r0
 8001586:	6093      	str	r3, [r2, #8]
 8001588:	6893      	ldr	r3, [r2, #8]
 800158a:	482a      	ldr	r0, [pc, #168]	; (8001634 <HAL_RCC_ClockConfig+0x154>)
 800158c:	4003      	ands	r3, r0
 800158e:	68a8      	ldr	r0, [r5, #8]
 8001590:	4303      	orrs	r3, r0
 8001592:	6093      	str	r3, [r2, #8]
 8001594:	e7b4      	b.n	8001500 <HAL_RCC_ClockConfig+0x20>
 8001596:	686a      	ldr	r2, [r5, #4]
 8001598:	4f21      	ldr	r7, [pc, #132]	; (8001620 <HAL_RCC_ClockConfig+0x140>)
 800159a:	2a01      	cmp	r2, #1
 800159c:	d119      	bne.n	80015d2 <HAL_RCC_ClockConfig+0xf2>
 800159e:	683b      	ldr	r3, [r7, #0]
 80015a0:	039b      	lsls	r3, r3, #14
 80015a2:	d5a2      	bpl.n	80014ea <HAL_RCC_ClockConfig+0xa>
 80015a4:	2107      	movs	r1, #7
 80015a6:	68bb      	ldr	r3, [r7, #8]
 80015a8:	438b      	bics	r3, r1
 80015aa:	4313      	orrs	r3, r2
 80015ac:	60bb      	str	r3, [r7, #8]
 80015ae:	f7ff f89b 	bl	80006e8 <HAL_GetTick>
 80015b2:	9001      	str	r0, [sp, #4]
 80015b4:	2338      	movs	r3, #56	; 0x38
 80015b6:	68ba      	ldr	r2, [r7, #8]
 80015b8:	401a      	ands	r2, r3
 80015ba:	686b      	ldr	r3, [r5, #4]
 80015bc:	00db      	lsls	r3, r3, #3
 80015be:	429a      	cmp	r2, r3
 80015c0:	d0a0      	beq.n	8001504 <HAL_RCC_ClockConfig+0x24>
 80015c2:	f7ff f891 	bl	80006e8 <HAL_GetTick>
 80015c6:	9b01      	ldr	r3, [sp, #4]
 80015c8:	1ac0      	subs	r0, r0, r3
 80015ca:	4b19      	ldr	r3, [pc, #100]	; (8001630 <HAL_RCC_ClockConfig+0x150>)
 80015cc:	4298      	cmp	r0, r3
 80015ce:	d9f1      	bls.n	80015b4 <HAL_RCC_ClockConfig+0xd4>
 80015d0:	e7d0      	b.n	8001574 <HAL_RCC_ClockConfig+0x94>
 80015d2:	2a02      	cmp	r2, #2
 80015d4:	d103      	bne.n	80015de <HAL_RCC_ClockConfig+0xfe>
 80015d6:	683b      	ldr	r3, [r7, #0]
 80015d8:	019b      	lsls	r3, r3, #6
 80015da:	d4e3      	bmi.n	80015a4 <HAL_RCC_ClockConfig+0xc4>
 80015dc:	e785      	b.n	80014ea <HAL_RCC_ClockConfig+0xa>
 80015de:	2a00      	cmp	r2, #0
 80015e0:	d103      	bne.n	80015ea <HAL_RCC_ClockConfig+0x10a>
 80015e2:	683b      	ldr	r3, [r7, #0]
 80015e4:	055b      	lsls	r3, r3, #21
 80015e6:	d4dd      	bmi.n	80015a4 <HAL_RCC_ClockConfig+0xc4>
 80015e8:	e77f      	b.n	80014ea <HAL_RCC_ClockConfig+0xa>
 80015ea:	2302      	movs	r3, #2
 80015ec:	2a03      	cmp	r2, #3
 80015ee:	d103      	bne.n	80015f8 <HAL_RCC_ClockConfig+0x118>
 80015f0:	6e39      	ldr	r1, [r7, #96]	; 0x60
 80015f2:	4219      	tst	r1, r3
 80015f4:	d1d6      	bne.n	80015a4 <HAL_RCC_ClockConfig+0xc4>
 80015f6:	e778      	b.n	80014ea <HAL_RCC_ClockConfig+0xa>
 80015f8:	6df9      	ldr	r1, [r7, #92]	; 0x5c
 80015fa:	e7fa      	b.n	80015f2 <HAL_RCC_ClockConfig+0x112>
 80015fc:	f7ff f874 	bl	80006e8 <HAL_GetTick>
 8001600:	9b01      	ldr	r3, [sp, #4]
 8001602:	1ac0      	subs	r0, r0, r3
 8001604:	4b0a      	ldr	r3, [pc, #40]	; (8001630 <HAL_RCC_ClockConfig+0x150>)
 8001606:	4298      	cmp	r0, r3
 8001608:	d988      	bls.n	800151c <HAL_RCC_ClockConfig+0x3c>
 800160a:	e7b3      	b.n	8001574 <HAL_RCC_ClockConfig+0x94>
 800160c:	68a3      	ldr	r3, [r4, #8]
 800160e:	4a0a      	ldr	r2, [pc, #40]	; (8001638 <HAL_RCC_ClockConfig+0x158>)
 8001610:	4013      	ands	r3, r2
 8001612:	68ea      	ldr	r2, [r5, #12]
 8001614:	4313      	orrs	r3, r2
 8001616:	60a3      	str	r3, [r4, #8]
 8001618:	e788      	b.n	800152c <HAL_RCC_ClockConfig+0x4c>
 800161a:	46c0      	nop			; (mov r8, r8)
 800161c:	40022000 	.word	0x40022000
 8001620:	40021000 	.word	0x40021000
 8001624:	08003524 	.word	0x08003524
 8001628:	2000000c 	.word	0x2000000c
 800162c:	20000004 	.word	0x20000004
 8001630:	00001388 	.word	0x00001388
 8001634:	fffff0ff 	.word	0xfffff0ff
 8001638:	ffff8fff 	.word	0xffff8fff

0800163c <HAL_RCC_GetPCLK1Freq>:
 800163c:	4b06      	ldr	r3, [pc, #24]	; (8001658 <HAL_RCC_GetPCLK1Freq+0x1c>)
 800163e:	4a07      	ldr	r2, [pc, #28]	; (800165c <HAL_RCC_GetPCLK1Freq+0x20>)
 8001640:	689b      	ldr	r3, [r3, #8]
 8001642:	045b      	lsls	r3, r3, #17
 8001644:	0f5b      	lsrs	r3, r3, #29
 8001646:	009b      	lsls	r3, r3, #2
 8001648:	589b      	ldr	r3, [r3, r2]
 800164a:	221f      	movs	r2, #31
 800164c:	4013      	ands	r3, r2
 800164e:	4a04      	ldr	r2, [pc, #16]	; (8001660 <HAL_RCC_GetPCLK1Freq+0x24>)
 8001650:	6810      	ldr	r0, [r2, #0]
 8001652:	40d8      	lsrs	r0, r3
 8001654:	4770      	bx	lr
 8001656:	46c0      	nop			; (mov r8, r8)
 8001658:	40021000 	.word	0x40021000
 800165c:	08003564 	.word	0x08003564
 8001660:	2000000c 	.word	0x2000000c

08001664 <HAL_RCCEx_PeriphCLKConfig>:
 8001664:	b5f0      	push	{r4, r5, r6, r7, lr}
 8001666:	0005      	movs	r5, r0
 8001668:	682b      	ldr	r3, [r5, #0]
 800166a:	2000      	movs	r0, #0
 800166c:	b085      	sub	sp, #20
 800166e:	039b      	lsls	r3, r3, #14
 8001670:	d53c      	bpl.n	80016ec <HAL_RCCEx_PeriphCLKConfig+0x88>
 8001672:	2280      	movs	r2, #128	; 0x80
 8001674:	4c71      	ldr	r4, [pc, #452]	; (800183c <HAL_RCCEx_PeriphCLKConfig+0x1d8>)
 8001676:	0552      	lsls	r2, r2, #21
 8001678:	6be3      	ldr	r3, [r4, #60]	; 0x3c
 800167a:	9000      	str	r0, [sp, #0]
 800167c:	4213      	tst	r3, r2
 800167e:	d108      	bne.n	8001692 <HAL_RCCEx_PeriphCLKConfig+0x2e>
 8001680:	6be3      	ldr	r3, [r4, #60]	; 0x3c
 8001682:	4313      	orrs	r3, r2
 8001684:	63e3      	str	r3, [r4, #60]	; 0x3c
 8001686:	6be3      	ldr	r3, [r4, #60]	; 0x3c
 8001688:	4013      	ands	r3, r2
 800168a:	9303      	str	r3, [sp, #12]
 800168c:	9b03      	ldr	r3, [sp, #12]
 800168e:	2301      	movs	r3, #1
 8001690:	9300      	str	r3, [sp, #0]
 8001692:	2780      	movs	r7, #128	; 0x80
 8001694:	4e6a      	ldr	r6, [pc, #424]	; (8001840 <HAL_RCCEx_PeriphCLKConfig+0x1dc>)
 8001696:	007f      	lsls	r7, r7, #1
 8001698:	6833      	ldr	r3, [r6, #0]
 800169a:	433b      	orrs	r3, r7
 800169c:	6033      	str	r3, [r6, #0]
 800169e:	f7ff f823 	bl	80006e8 <HAL_GetTick>
 80016a2:	9001      	str	r0, [sp, #4]
 80016a4:	6833      	ldr	r3, [r6, #0]
 80016a6:	423b      	tst	r3, r7
 80016a8:	d012      	beq.n	80016d0 <HAL_RCCEx_PeriphCLKConfig+0x6c>
 80016aa:	6de2      	ldr	r2, [r4, #92]	; 0x5c
 80016ac:	23c0      	movs	r3, #192	; 0xc0
 80016ae:	0011      	movs	r1, r2
 80016b0:	009b      	lsls	r3, r3, #2
 80016b2:	4e64      	ldr	r6, [pc, #400]	; (8001844 <HAL_RCCEx_PeriphCLKConfig+0x1e0>)
 80016b4:	4019      	ands	r1, r3
 80016b6:	421a      	tst	r2, r3
 80016b8:	d003      	beq.n	80016c2 <HAL_RCCEx_PeriphCLKConfig+0x5e>
 80016ba:	6b2b      	ldr	r3, [r5, #48]	; 0x30
 80016bc:	4299      	cmp	r1, r3
 80016be:	d000      	beq.n	80016c2 <HAL_RCCEx_PeriphCLKConfig+0x5e>
 80016c0:	e09c      	b.n	80017fc <HAL_RCCEx_PeriphCLKConfig+0x198>
 80016c2:	6de3      	ldr	r3, [r4, #92]	; 0x5c
 80016c4:	2000      	movs	r0, #0
 80016c6:	401e      	ands	r6, r3
 80016c8:	6b2b      	ldr	r3, [r5, #48]	; 0x30
 80016ca:	431e      	orrs	r6, r3
 80016cc:	65e6      	str	r6, [r4, #92]	; 0x5c
 80016ce:	e006      	b.n	80016de <HAL_RCCEx_PeriphCLKConfig+0x7a>
 80016d0:	f7ff f80a 	bl	80006e8 <HAL_GetTick>
 80016d4:	9b01      	ldr	r3, [sp, #4]
 80016d6:	1ac0      	subs	r0, r0, r3
 80016d8:	2802      	cmp	r0, #2
 80016da:	d9e3      	bls.n	80016a4 <HAL_RCCEx_PeriphCLKConfig+0x40>
 80016dc:	2003      	movs	r0, #3
 80016de:	9b00      	ldr	r3, [sp, #0]
 80016e0:	2b01      	cmp	r3, #1
 80016e2:	d103      	bne.n	80016ec <HAL_RCCEx_PeriphCLKConfig+0x88>
 80016e4:	6be3      	ldr	r3, [r4, #60]	; 0x3c
 80016e6:	4a58      	ldr	r2, [pc, #352]	; (8001848 <HAL_RCCEx_PeriphCLKConfig+0x1e4>)
 80016e8:	4013      	ands	r3, r2
 80016ea:	63e3      	str	r3, [r4, #60]	; 0x3c
 80016ec:	682b      	ldr	r3, [r5, #0]
 80016ee:	07da      	lsls	r2, r3, #31
 80016f0:	d506      	bpl.n	8001700 <HAL_RCCEx_PeriphCLKConfig+0x9c>
 80016f2:	2403      	movs	r4, #3
 80016f4:	4951      	ldr	r1, [pc, #324]	; (800183c <HAL_RCCEx_PeriphCLKConfig+0x1d8>)
 80016f6:	6d4a      	ldr	r2, [r1, #84]	; 0x54
 80016f8:	43a2      	bics	r2, r4
 80016fa:	686c      	ldr	r4, [r5, #4]
 80016fc:	4322      	orrs	r2, r4
 80016fe:	654a      	str	r2, [r1, #84]	; 0x54
 8001700:	079a      	lsls	r2, r3, #30
 8001702:	d506      	bpl.n	8001712 <HAL_RCCEx_PeriphCLKConfig+0xae>
 8001704:	240c      	movs	r4, #12
 8001706:	494d      	ldr	r1, [pc, #308]	; (800183c <HAL_RCCEx_PeriphCLKConfig+0x1d8>)
 8001708:	6d4a      	ldr	r2, [r1, #84]	; 0x54
 800170a:	43a2      	bics	r2, r4
 800170c:	68ac      	ldr	r4, [r5, #8]
 800170e:	4322      	orrs	r2, r4
 8001710:	654a      	str	r2, [r1, #84]	; 0x54
 8001712:	06da      	lsls	r2, r3, #27
 8001714:	d506      	bpl.n	8001724 <HAL_RCCEx_PeriphCLKConfig+0xc0>
 8001716:	4949      	ldr	r1, [pc, #292]	; (800183c <HAL_RCCEx_PeriphCLKConfig+0x1d8>)
 8001718:	4c4c      	ldr	r4, [pc, #304]	; (800184c <HAL_RCCEx_PeriphCLKConfig+0x1e8>)
 800171a:	6d4a      	ldr	r2, [r1, #84]	; 0x54
 800171c:	4022      	ands	r2, r4
 800171e:	68ec      	ldr	r4, [r5, #12]
 8001720:	4322      	orrs	r2, r4
 8001722:	654a      	str	r2, [r1, #84]	; 0x54
 8001724:	059a      	lsls	r2, r3, #22
 8001726:	d506      	bpl.n	8001736 <HAL_RCCEx_PeriphCLKConfig+0xd2>
 8001728:	4944      	ldr	r1, [pc, #272]	; (800183c <HAL_RCCEx_PeriphCLKConfig+0x1d8>)
 800172a:	4c49      	ldr	r4, [pc, #292]	; (8001850 <HAL_RCCEx_PeriphCLKConfig+0x1ec>)
 800172c:	6d4a      	ldr	r2, [r1, #84]	; 0x54
 800172e:	4022      	ands	r2, r4
 8001730:	69ac      	ldr	r4, [r5, #24]
 8001732:	4322      	orrs	r2, r4
 8001734:	654a      	str	r2, [r1, #84]	; 0x54
 8001736:	055a      	lsls	r2, r3, #21
 8001738:	d506      	bpl.n	8001748 <HAL_RCCEx_PeriphCLKConfig+0xe4>
 800173a:	4940      	ldr	r1, [pc, #256]	; (800183c <HAL_RCCEx_PeriphCLKConfig+0x1d8>)
 800173c:	4c45      	ldr	r4, [pc, #276]	; (8001854 <HAL_RCCEx_PeriphCLKConfig+0x1f0>)
 800173e:	6d4a      	ldr	r2, [r1, #84]	; 0x54
 8001740:	4022      	ands	r2, r4
 8001742:	69ec      	ldr	r4, [r5, #28]
 8001744:	4322      	orrs	r2, r4
 8001746:	654a      	str	r2, [r1, #84]	; 0x54
 8001748:	069a      	lsls	r2, r3, #26
 800174a:	d506      	bpl.n	800175a <HAL_RCCEx_PeriphCLKConfig+0xf6>
 800174c:	493b      	ldr	r1, [pc, #236]	; (800183c <HAL_RCCEx_PeriphCLKConfig+0x1d8>)
 800174e:	4c42      	ldr	r4, [pc, #264]	; (8001858 <HAL_RCCEx_PeriphCLKConfig+0x1f4>)
 8001750:	6d4a      	ldr	r2, [r1, #84]	; 0x54
 8001752:	4022      	ands	r2, r4
 8001754:	692c      	ldr	r4, [r5, #16]
 8001756:	4322      	orrs	r2, r4
 8001758:	654a      	str	r2, [r1, #84]	; 0x54
 800175a:	045a      	lsls	r2, r3, #17
 800175c:	d50f      	bpl.n	800177e <HAL_RCCEx_PeriphCLKConfig+0x11a>
 800175e:	4937      	ldr	r1, [pc, #220]	; (800183c <HAL_RCCEx_PeriphCLKConfig+0x1d8>)
 8001760:	6a2c      	ldr	r4, [r5, #32]
 8001762:	6d4a      	ldr	r2, [r1, #84]	; 0x54
 8001764:	0092      	lsls	r2, r2, #2
 8001766:	0892      	lsrs	r2, r2, #2
 8001768:	4322      	orrs	r2, r4
 800176a:	654a      	str	r2, [r1, #84]	; 0x54
 800176c:	2280      	movs	r2, #128	; 0x80
 800176e:	05d2      	lsls	r2, r2, #23
 8001770:	4294      	cmp	r4, r2
 8001772:	d104      	bne.n	800177e <HAL_RCCEx_PeriphCLKConfig+0x11a>
 8001774:	2280      	movs	r2, #128	; 0x80
 8001776:	68cc      	ldr	r4, [r1, #12]
 8001778:	0252      	lsls	r2, r2, #9
 800177a:	4322      	orrs	r2, r4
 800177c:	60ca      	str	r2, [r1, #12]
 800177e:	031a      	lsls	r2, r3, #12
 8001780:	d506      	bpl.n	8001790 <HAL_RCCEx_PeriphCLKConfig+0x12c>
 8001782:	2440      	movs	r4, #64	; 0x40
 8001784:	492d      	ldr	r1, [pc, #180]	; (800183c <HAL_RCCEx_PeriphCLKConfig+0x1d8>)
 8001786:	6d4a      	ldr	r2, [r1, #84]	; 0x54
 8001788:	43a2      	bics	r2, r4
 800178a:	6a6c      	ldr	r4, [r5, #36]	; 0x24
 800178c:	4322      	orrs	r2, r4
 800178e:	654a      	str	r2, [r1, #84]	; 0x54
 8001790:	029a      	lsls	r2, r3, #10
 8001792:	d50f      	bpl.n	80017b4 <HAL_RCCEx_PeriphCLKConfig+0x150>
 8001794:	4929      	ldr	r1, [pc, #164]	; (800183c <HAL_RCCEx_PeriphCLKConfig+0x1d8>)
 8001796:	4e31      	ldr	r6, [pc, #196]	; (800185c <HAL_RCCEx_PeriphCLKConfig+0x1f8>)
 8001798:	6d4a      	ldr	r2, [r1, #84]	; 0x54
 800179a:	6aac      	ldr	r4, [r5, #40]	; 0x28
 800179c:	4032      	ands	r2, r6
 800179e:	4322      	orrs	r2, r4
 80017a0:	654a      	str	r2, [r1, #84]	; 0x54
 80017a2:	2280      	movs	r2, #128	; 0x80
 80017a4:	03d2      	lsls	r2, r2, #15
 80017a6:	4294      	cmp	r4, r2
 80017a8:	d104      	bne.n	80017b4 <HAL_RCCEx_PeriphCLKConfig+0x150>
 80017aa:	2280      	movs	r2, #128	; 0x80
 80017ac:	68cc      	ldr	r4, [r1, #12]
 80017ae:	0452      	lsls	r2, r2, #17
 80017b0:	4322      	orrs	r2, r4
 80017b2:	60ca      	str	r2, [r1, #12]
 80017b4:	025a      	lsls	r2, r3, #9
 80017b6:	d50d      	bpl.n	80017d4 <HAL_RCCEx_PeriphCLKConfig+0x170>
 80017b8:	4c20      	ldr	r4, [pc, #128]	; (800183c <HAL_RCCEx_PeriphCLKConfig+0x1d8>)
 80017ba:	4e29      	ldr	r6, [pc, #164]	; (8001860 <HAL_RCCEx_PeriphCLKConfig+0x1fc>)
 80017bc:	6d61      	ldr	r1, [r4, #84]	; 0x54
 80017be:	6aea      	ldr	r2, [r5, #44]	; 0x2c
 80017c0:	4031      	ands	r1, r6
 80017c2:	4311      	orrs	r1, r2
 80017c4:	6561      	str	r1, [r4, #84]	; 0x54
 80017c6:	2180      	movs	r1, #128	; 0x80
 80017c8:	0449      	lsls	r1, r1, #17
 80017ca:	428a      	cmp	r2, r1
 80017cc:	d102      	bne.n	80017d4 <HAL_RCCEx_PeriphCLKConfig+0x170>
 80017ce:	68e1      	ldr	r1, [r4, #12]
 80017d0:	430a      	orrs	r2, r1
 80017d2:	60e2      	str	r2, [r4, #12]
 80017d4:	051b      	lsls	r3, r3, #20
 80017d6:	d50f      	bpl.n	80017f8 <HAL_RCCEx_PeriphCLKConfig+0x194>
 80017d8:	4a18      	ldr	r2, [pc, #96]	; (800183c <HAL_RCCEx_PeriphCLKConfig+0x1d8>)
 80017da:	4c22      	ldr	r4, [pc, #136]	; (8001864 <HAL_RCCEx_PeriphCLKConfig+0x200>)
 80017dc:	6d53      	ldr	r3, [r2, #84]	; 0x54
 80017de:	6969      	ldr	r1, [r5, #20]
 80017e0:	4023      	ands	r3, r4
 80017e2:	430b      	orrs	r3, r1
 80017e4:	6553      	str	r3, [r2, #84]	; 0x54
 80017e6:	2380      	movs	r3, #128	; 0x80
 80017e8:	01db      	lsls	r3, r3, #7
 80017ea:	4299      	cmp	r1, r3
 80017ec:	d104      	bne.n	80017f8 <HAL_RCCEx_PeriphCLKConfig+0x194>
 80017ee:	2380      	movs	r3, #128	; 0x80
 80017f0:	68d1      	ldr	r1, [r2, #12]
 80017f2:	025b      	lsls	r3, r3, #9
 80017f4:	430b      	orrs	r3, r1
 80017f6:	60d3      	str	r3, [r2, #12]
 80017f8:	b005      	add	sp, #20
 80017fa:	bdf0      	pop	{r4, r5, r6, r7, pc}
 80017fc:	2380      	movs	r3, #128	; 0x80
 80017fe:	6de2      	ldr	r2, [r4, #92]	; 0x5c
 8001800:	6de0      	ldr	r0, [r4, #92]	; 0x5c
 8001802:	0011      	movs	r1, r2
 8001804:	025b      	lsls	r3, r3, #9
 8001806:	4303      	orrs	r3, r0
 8001808:	65e3      	str	r3, [r4, #92]	; 0x5c
 800180a:	6de3      	ldr	r3, [r4, #92]	; 0x5c
 800180c:	4816      	ldr	r0, [pc, #88]	; (8001868 <HAL_RCCEx_PeriphCLKConfig+0x204>)
 800180e:	4031      	ands	r1, r6
 8001810:	4003      	ands	r3, r0
 8001812:	65e3      	str	r3, [r4, #92]	; 0x5c
 8001814:	65e1      	str	r1, [r4, #92]	; 0x5c
 8001816:	07d3      	lsls	r3, r2, #31
 8001818:	d400      	bmi.n	800181c <HAL_RCCEx_PeriphCLKConfig+0x1b8>
 800181a:	e752      	b.n	80016c2 <HAL_RCCEx_PeriphCLKConfig+0x5e>
 800181c:	f7fe ff64 	bl	80006e8 <HAL_GetTick>
 8001820:	0007      	movs	r7, r0
 8001822:	2202      	movs	r2, #2
 8001824:	6de3      	ldr	r3, [r4, #92]	; 0x5c
 8001826:	4213      	tst	r3, r2
 8001828:	d000      	beq.n	800182c <HAL_RCCEx_PeriphCLKConfig+0x1c8>
 800182a:	e74a      	b.n	80016c2 <HAL_RCCEx_PeriphCLKConfig+0x5e>
 800182c:	f7fe ff5c 	bl	80006e8 <HAL_GetTick>
 8001830:	4b0e      	ldr	r3, [pc, #56]	; (800186c <HAL_RCCEx_PeriphCLKConfig+0x208>)
 8001832:	1bc0      	subs	r0, r0, r7
 8001834:	4298      	cmp	r0, r3
 8001836:	d9f4      	bls.n	8001822 <HAL_RCCEx_PeriphCLKConfig+0x1be>
 8001838:	e750      	b.n	80016dc <HAL_RCCEx_PeriphCLKConfig+0x78>
 800183a:	46c0      	nop			; (mov r8, r8)
 800183c:	40021000 	.word	0x40021000
 8001840:	40007000 	.word	0x40007000
 8001844:	fffffcff 	.word	0xfffffcff
 8001848:	efffffff 	.word	0xefffffff
 800184c:	fffff3ff 	.word	0xfffff3ff
 8001850:	fff3ffff 	.word	0xfff3ffff
 8001854:	ffcfffff 	.word	0xffcfffff
 8001858:	ffffcfff 	.word	0xffffcfff
 800185c:	ffbfffff 	.word	0xffbfffff
 8001860:	feffffff 	.word	0xfeffffff
 8001864:	ffff3fff 	.word	0xffff3fff
 8001868:	fffeffff 	.word	0xfffeffff
 800186c:	00001388 	.word	0x00001388

08001870 <HAL_TIM_Base_Start_IT>:
 8001870:	0002      	movs	r2, r0
 8001872:	0003      	movs	r3, r0
 8001874:	2001      	movs	r0, #1
 8001876:	323d      	adds	r2, #61	; 0x3d
 8001878:	7811      	ldrb	r1, [r2, #0]
 800187a:	4281      	cmp	r1, r0
 800187c:	d11f      	bne.n	80018be <HAL_TIM_Base_Start_IT+0x4e>
 800187e:	2102      	movs	r1, #2
 8001880:	7011      	strb	r1, [r2, #0]
 8001882:	681b      	ldr	r3, [r3, #0]
 8001884:	68da      	ldr	r2, [r3, #12]
 8001886:	4302      	orrs	r2, r0
 8001888:	60da      	str	r2, [r3, #12]
 800188a:	4a10      	ldr	r2, [pc, #64]	; (80018cc <HAL_TIM_Base_Start_IT+0x5c>)
 800188c:	4293      	cmp	r3, r2
 800188e:	d009      	beq.n	80018a4 <HAL_TIM_Base_Start_IT+0x34>
 8001890:	2280      	movs	r2, #128	; 0x80
 8001892:	05d2      	lsls	r2, r2, #23
 8001894:	4293      	cmp	r3, r2
 8001896:	d005      	beq.n	80018a4 <HAL_TIM_Base_Start_IT+0x34>
 8001898:	4a0d      	ldr	r2, [pc, #52]	; (80018d0 <HAL_TIM_Base_Start_IT+0x60>)
 800189a:	4293      	cmp	r3, r2
 800189c:	d002      	beq.n	80018a4 <HAL_TIM_Base_Start_IT+0x34>
 800189e:	4a0d      	ldr	r2, [pc, #52]	; (80018d4 <HAL_TIM_Base_Start_IT+0x64>)
 80018a0:	4293      	cmp	r3, r2
 80018a2:	d10d      	bne.n	80018c0 <HAL_TIM_Base_Start_IT+0x50>
 80018a4:	689a      	ldr	r2, [r3, #8]
 80018a6:	490c      	ldr	r1, [pc, #48]	; (80018d8 <HAL_TIM_Base_Start_IT+0x68>)
 80018a8:	2000      	movs	r0, #0
 80018aa:	400a      	ands	r2, r1
 80018ac:	2a06      	cmp	r2, #6
 80018ae:	d006      	beq.n	80018be <HAL_TIM_Base_Start_IT+0x4e>
 80018b0:	3907      	subs	r1, #7
 80018b2:	428a      	cmp	r2, r1
 80018b4:	d003      	beq.n	80018be <HAL_TIM_Base_Start_IT+0x4e>
 80018b6:	2201      	movs	r2, #1
 80018b8:	6819      	ldr	r1, [r3, #0]
 80018ba:	430a      	orrs	r2, r1
 80018bc:	601a      	str	r2, [r3, #0]
 80018be:	4770      	bx	lr
 80018c0:	681a      	ldr	r2, [r3, #0]
 80018c2:	4310      	orrs	r0, r2
 80018c4:	6018      	str	r0, [r3, #0]
 80018c6:	2000      	movs	r0, #0
 80018c8:	e7f9      	b.n	80018be <HAL_TIM_Base_Start_IT+0x4e>
 80018ca:	46c0      	nop			; (mov r8, r8)
 80018cc:	40012c00 	.word	0x40012c00
 80018d0:	40000400 	.word	0x40000400
 80018d4:	40014000 	.word	0x40014000
 80018d8:	00010007 	.word	0x00010007

080018dc <HAL_TIM_OC_DelayElapsedCallback>:
 80018dc:	4770      	bx	lr

080018de <HAL_TIM_IC_CaptureCallback>:
 80018de:	4770      	bx	lr

080018e0 <HAL_TIM_PWM_PulseFinishedCallback>:
 80018e0:	4770      	bx	lr

080018e2 <HAL_TIM_TriggerCallback>:
 80018e2:	4770      	bx	lr

080018e4 <HAL_TIM_IRQHandler>:
 80018e4:	2202      	movs	r2, #2
 80018e6:	6803      	ldr	r3, [r0, #0]
 80018e8:	b510      	push	{r4, lr}
 80018ea:	6919      	ldr	r1, [r3, #16]
 80018ec:	0004      	movs	r4, r0
 80018ee:	4211      	tst	r1, r2
 80018f0:	d00e      	beq.n	8001910 <HAL_TIM_IRQHandler+0x2c>
 80018f2:	68d9      	ldr	r1, [r3, #12]
 80018f4:	4211      	tst	r1, r2
 80018f6:	d00b      	beq.n	8001910 <HAL_TIM_IRQHandler+0x2c>
 80018f8:	3a05      	subs	r2, #5
 80018fa:	611a      	str	r2, [r3, #16]
 80018fc:	3204      	adds	r2, #4
 80018fe:	7702      	strb	r2, [r0, #28]
 8001900:	699b      	ldr	r3, [r3, #24]
 8001902:	079b      	lsls	r3, r3, #30
 8001904:	d100      	bne.n	8001908 <HAL_TIM_IRQHandler+0x24>
 8001906:	e086      	b.n	8001a16 <HAL_TIM_IRQHandler+0x132>
 8001908:	f7ff ffe9 	bl	80018de <HAL_TIM_IC_CaptureCallback>
 800190c:	2300      	movs	r3, #0
 800190e:	7723      	strb	r3, [r4, #28]
 8001910:	2204      	movs	r2, #4
 8001912:	6823      	ldr	r3, [r4, #0]
 8001914:	6919      	ldr	r1, [r3, #16]
 8001916:	4211      	tst	r1, r2
 8001918:	d011      	beq.n	800193e <HAL_TIM_IRQHandler+0x5a>
 800191a:	68d9      	ldr	r1, [r3, #12]
 800191c:	4211      	tst	r1, r2
 800191e:	d00e      	beq.n	800193e <HAL_TIM_IRQHandler+0x5a>
 8001920:	3a09      	subs	r2, #9
 8001922:	611a      	str	r2, [r3, #16]
 8001924:	3207      	adds	r2, #7
 8001926:	7722      	strb	r2, [r4, #28]
 8001928:	699a      	ldr	r2, [r3, #24]
 800192a:	23c0      	movs	r3, #192	; 0xc0
 800192c:	009b      	lsls	r3, r3, #2
 800192e:	0020      	movs	r0, r4
 8001930:	421a      	tst	r2, r3
 8001932:	d100      	bne.n	8001936 <HAL_TIM_IRQHandler+0x52>
 8001934:	e075      	b.n	8001a22 <HAL_TIM_IRQHandler+0x13e>
 8001936:	f7ff ffd2 	bl	80018de <HAL_TIM_IC_CaptureCallback>
 800193a:	2300      	movs	r3, #0
 800193c:	7723      	strb	r3, [r4, #28]
 800193e:	2208      	movs	r2, #8
 8001940:	6823      	ldr	r3, [r4, #0]
 8001942:	6919      	ldr	r1, [r3, #16]
 8001944:	4211      	tst	r1, r2
 8001946:	d00e      	beq.n	8001966 <HAL_TIM_IRQHandler+0x82>
 8001948:	68d9      	ldr	r1, [r3, #12]
 800194a:	4211      	tst	r1, r2
 800194c:	d00b      	beq.n	8001966 <HAL_TIM_IRQHandler+0x82>
 800194e:	3a11      	subs	r2, #17
 8001950:	611a      	str	r2, [r3, #16]
 8001952:	320d      	adds	r2, #13
 8001954:	7722      	strb	r2, [r4, #28]
 8001956:	69db      	ldr	r3, [r3, #28]
 8001958:	0020      	movs	r0, r4
 800195a:	079b      	lsls	r3, r3, #30
 800195c:	d067      	beq.n	8001a2e <HAL_TIM_IRQHandler+0x14a>
 800195e:	f7ff ffbe 	bl	80018de <HAL_TIM_IC_CaptureCallback>
 8001962:	2300      	movs	r3, #0
 8001964:	7723      	strb	r3, [r4, #28]
 8001966:	2210      	movs	r2, #16
 8001968:	6823      	ldr	r3, [r4, #0]
 800196a:	6919      	ldr	r1, [r3, #16]
 800196c:	4211      	tst	r1, r2
 800196e:	d010      	beq.n	8001992 <HAL_TIM_IRQHandler+0xae>
 8001970:	68d9      	ldr	r1, [r3, #12]
 8001972:	4211      	tst	r1, r2
 8001974:	d00d      	beq.n	8001992 <HAL_TIM_IRQHandler+0xae>
 8001976:	3a21      	subs	r2, #33	; 0x21
 8001978:	611a      	str	r2, [r3, #16]
 800197a:	3219      	adds	r2, #25
 800197c:	7722      	strb	r2, [r4, #28]
 800197e:	69da      	ldr	r2, [r3, #28]
 8001980:	23c0      	movs	r3, #192	; 0xc0
 8001982:	009b      	lsls	r3, r3, #2
 8001984:	0020      	movs	r0, r4
 8001986:	421a      	tst	r2, r3
 8001988:	d057      	beq.n	8001a3a <HAL_TIM_IRQHandler+0x156>
 800198a:	f7ff ffa8 	bl	80018de <HAL_TIM_IC_CaptureCallback>
 800198e:	2300      	movs	r3, #0
 8001990:	7723      	strb	r3, [r4, #28]
 8001992:	2201      	movs	r2, #1
 8001994:	6823      	ldr	r3, [r4, #0]
 8001996:	6919      	ldr	r1, [r3, #16]
 8001998:	4211      	tst	r1, r2
 800199a:	d007      	beq.n	80019ac <HAL_TIM_IRQHandler+0xc8>
 800199c:	68d9      	ldr	r1, [r3, #12]
 800199e:	4211      	tst	r1, r2
 80019a0:	d004      	beq.n	80019ac <HAL_TIM_IRQHandler+0xc8>
 80019a2:	3a03      	subs	r2, #3
 80019a4:	0020      	movs	r0, r4
 80019a6:	611a      	str	r2, [r3, #16]
 80019a8:	f001 fb08 	bl	8002fbc <HAL_TIM_PeriodElapsedCallback>
 80019ac:	2280      	movs	r2, #128	; 0x80
 80019ae:	6823      	ldr	r3, [r4, #0]
 80019b0:	6919      	ldr	r1, [r3, #16]
 80019b2:	4211      	tst	r1, r2
 80019b4:	d008      	beq.n	80019c8 <HAL_TIM_IRQHandler+0xe4>
 80019b6:	68d9      	ldr	r1, [r3, #12]
 80019b8:	4211      	tst	r1, r2
 80019ba:	d005      	beq.n	80019c8 <HAL_TIM_IRQHandler+0xe4>
 80019bc:	3a02      	subs	r2, #2
 80019be:	3aff      	subs	r2, #255	; 0xff
 80019c0:	0020      	movs	r0, r4
 80019c2:	611a      	str	r2, [r3, #16]
 80019c4:	f000 f997 	bl	8001cf6 <HAL_TIMEx_BreakCallback>
 80019c8:	6823      	ldr	r3, [r4, #0]
 80019ca:	691a      	ldr	r2, [r3, #16]
 80019cc:	05d2      	lsls	r2, r2, #23
 80019ce:	d507      	bpl.n	80019e0 <HAL_TIM_IRQHandler+0xfc>
 80019d0:	68da      	ldr	r2, [r3, #12]
 80019d2:	0612      	lsls	r2, r2, #24
 80019d4:	d504      	bpl.n	80019e0 <HAL_TIM_IRQHandler+0xfc>
 80019d6:	4a1c      	ldr	r2, [pc, #112]	; (8001a48 <HAL_TIM_IRQHandler+0x164>)
 80019d8:	0020      	movs	r0, r4
 80019da:	611a      	str	r2, [r3, #16]
 80019dc:	f000 f98c 	bl	8001cf8 <HAL_TIMEx_Break2Callback>
 80019e0:	2240      	movs	r2, #64	; 0x40
 80019e2:	6823      	ldr	r3, [r4, #0]
 80019e4:	6919      	ldr	r1, [r3, #16]
 80019e6:	4211      	tst	r1, r2
 80019e8:	d007      	beq.n	80019fa <HAL_TIM_IRQHandler+0x116>
 80019ea:	68d9      	ldr	r1, [r3, #12]
 80019ec:	4211      	tst	r1, r2
 80019ee:	d004      	beq.n	80019fa <HAL_TIM_IRQHandler+0x116>
 80019f0:	3a81      	subs	r2, #129	; 0x81
 80019f2:	0020      	movs	r0, r4
 80019f4:	611a      	str	r2, [r3, #16]
 80019f6:	f7ff ff74 	bl	80018e2 <HAL_TIM_TriggerCallback>
 80019fa:	2220      	movs	r2, #32
 80019fc:	6823      	ldr	r3, [r4, #0]
 80019fe:	6919      	ldr	r1, [r3, #16]
 8001a00:	4211      	tst	r1, r2
 8001a02:	d007      	beq.n	8001a14 <HAL_TIM_IRQHandler+0x130>
 8001a04:	68d9      	ldr	r1, [r3, #12]
 8001a06:	4211      	tst	r1, r2
 8001a08:	d004      	beq.n	8001a14 <HAL_TIM_IRQHandler+0x130>
 8001a0a:	3a41      	subs	r2, #65	; 0x41
 8001a0c:	0020      	movs	r0, r4
 8001a0e:	611a      	str	r2, [r3, #16]
 8001a10:	f000 f970 	bl	8001cf4 <HAL_TIMEx_CommutCallback>
 8001a14:	bd10      	pop	{r4, pc}
 8001a16:	f7ff ff61 	bl	80018dc <HAL_TIM_OC_DelayElapsedCallback>
 8001a1a:	0020      	movs	r0, r4
 8001a1c:	f7ff ff60 	bl	80018e0 <HAL_TIM_PWM_PulseFinishedCallback>
 8001a20:	e774      	b.n	800190c <HAL_TIM_IRQHandler+0x28>
 8001a22:	f7ff ff5b 	bl	80018dc <HAL_TIM_OC_DelayElapsedCallback>
 8001a26:	0020      	movs	r0, r4
 8001a28:	f7ff ff5a 	bl	80018e0 <HAL_TIM_PWM_PulseFinishedCallback>
 8001a2c:	e785      	b.n	800193a <HAL_TIM_IRQHandler+0x56>
 8001a2e:	f7ff ff55 	bl	80018dc <HAL_TIM_OC_DelayElapsedCallback>
 8001a32:	0020      	movs	r0, r4
 8001a34:	f7ff ff54 	bl	80018e0 <HAL_TIM_PWM_PulseFinishedCallback>
 8001a38:	e793      	b.n	8001962 <HAL_TIM_IRQHandler+0x7e>
 8001a3a:	f7ff ff4f 	bl	80018dc <HAL_TIM_OC_DelayElapsedCallback>
 8001a3e:	0020      	movs	r0, r4
 8001a40:	f7ff ff4e 	bl	80018e0 <HAL_TIM_PWM_PulseFinishedCallback>
 8001a44:	e7a3      	b.n	800198e <HAL_TIM_IRQHandler+0xaa>
 8001a46:	46c0      	nop			; (mov r8, r8)
 8001a48:	fffffeff 	.word	0xfffffeff

08001a4c <TIM_Base_SetConfig>:
 8001a4c:	4a20      	ldr	r2, [pc, #128]	; (8001ad0 <TIM_Base_SetConfig+0x84>)
 8001a4e:	b510      	push	{r4, lr}
 8001a50:	6803      	ldr	r3, [r0, #0]
 8001a52:	4290      	cmp	r0, r2
 8001a54:	d006      	beq.n	8001a64 <TIM_Base_SetConfig+0x18>
 8001a56:	2480      	movs	r4, #128	; 0x80
 8001a58:	05e4      	lsls	r4, r4, #23
 8001a5a:	42a0      	cmp	r0, r4
 8001a5c:	d002      	beq.n	8001a64 <TIM_Base_SetConfig+0x18>
 8001a5e:	4c1d      	ldr	r4, [pc, #116]	; (8001ad4 <TIM_Base_SetConfig+0x88>)
 8001a60:	42a0      	cmp	r0, r4
 8001a62:	d10c      	bne.n	8001a7e <TIM_Base_SetConfig+0x32>
 8001a64:	2470      	movs	r4, #112	; 0x70
 8001a66:	43a3      	bics	r3, r4
 8001a68:	684c      	ldr	r4, [r1, #4]
 8001a6a:	4323      	orrs	r3, r4
 8001a6c:	4290      	cmp	r0, r2
 8001a6e:	d012      	beq.n	8001a96 <TIM_Base_SetConfig+0x4a>
 8001a70:	2480      	movs	r4, #128	; 0x80
 8001a72:	05e4      	lsls	r4, r4, #23
 8001a74:	42a0      	cmp	r0, r4
 8001a76:	d00e      	beq.n	8001a96 <TIM_Base_SetConfig+0x4a>
 8001a78:	4c16      	ldr	r4, [pc, #88]	; (8001ad4 <TIM_Base_SetConfig+0x88>)
 8001a7a:	42a0      	cmp	r0, r4
 8001a7c:	d00b      	beq.n	8001a96 <TIM_Base_SetConfig+0x4a>
 8001a7e:	4c16      	ldr	r4, [pc, #88]	; (8001ad8 <TIM_Base_SetConfig+0x8c>)
 8001a80:	42a0      	cmp	r0, r4
 8001a82:	d008      	beq.n	8001a96 <TIM_Base_SetConfig+0x4a>
 8001a84:	4c15      	ldr	r4, [pc, #84]	; (8001adc <TIM_Base_SetConfig+0x90>)
 8001a86:	42a0      	cmp	r0, r4
 8001a88:	d005      	beq.n	8001a96 <TIM_Base_SetConfig+0x4a>
 8001a8a:	4c15      	ldr	r4, [pc, #84]	; (8001ae0 <TIM_Base_SetConfig+0x94>)
 8001a8c:	42a0      	cmp	r0, r4
 8001a8e:	d002      	beq.n	8001a96 <TIM_Base_SetConfig+0x4a>
 8001a90:	4c14      	ldr	r4, [pc, #80]	; (8001ae4 <TIM_Base_SetConfig+0x98>)
 8001a92:	42a0      	cmp	r0, r4
 8001a94:	d103      	bne.n	8001a9e <TIM_Base_SetConfig+0x52>
 8001a96:	4c14      	ldr	r4, [pc, #80]	; (8001ae8 <TIM_Base_SetConfig+0x9c>)
 8001a98:	4023      	ands	r3, r4
 8001a9a:	68cc      	ldr	r4, [r1, #12]
 8001a9c:	4323      	orrs	r3, r4
 8001a9e:	2480      	movs	r4, #128	; 0x80
 8001aa0:	43a3      	bics	r3, r4
 8001aa2:	694c      	ldr	r4, [r1, #20]
 8001aa4:	4323      	orrs	r3, r4
 8001aa6:	6003      	str	r3, [r0, #0]
 8001aa8:	688b      	ldr	r3, [r1, #8]
 8001aaa:	62c3      	str	r3, [r0, #44]	; 0x2c
 8001aac:	680b      	ldr	r3, [r1, #0]
 8001aae:	6283      	str	r3, [r0, #40]	; 0x28
 8001ab0:	4290      	cmp	r0, r2
 8001ab2:	d008      	beq.n	8001ac6 <TIM_Base_SetConfig+0x7a>
 8001ab4:	4b09      	ldr	r3, [pc, #36]	; (8001adc <TIM_Base_SetConfig+0x90>)
 8001ab6:	4298      	cmp	r0, r3
 8001ab8:	d005      	beq.n	8001ac6 <TIM_Base_SetConfig+0x7a>
 8001aba:	4b09      	ldr	r3, [pc, #36]	; (8001ae0 <TIM_Base_SetConfig+0x94>)
 8001abc:	4298      	cmp	r0, r3
 8001abe:	d002      	beq.n	8001ac6 <TIM_Base_SetConfig+0x7a>
 8001ac0:	4b08      	ldr	r3, [pc, #32]	; (8001ae4 <TIM_Base_SetConfig+0x98>)
 8001ac2:	4298      	cmp	r0, r3
 8001ac4:	d101      	bne.n	8001aca <TIM_Base_SetConfig+0x7e>
 8001ac6:	690b      	ldr	r3, [r1, #16]
 8001ac8:	6303      	str	r3, [r0, #48]	; 0x30
 8001aca:	2301      	movs	r3, #1
 8001acc:	6143      	str	r3, [r0, #20]
 8001ace:	bd10      	pop	{r4, pc}
 8001ad0:	40012c00 	.word	0x40012c00
 8001ad4:	40000400 	.word	0x40000400
 8001ad8:	40002000 	.word	0x40002000
 8001adc:	40014000 	.word	0x40014000
 8001ae0:	40014400 	.word	0x40014400
 8001ae4:	40014800 	.word	0x40014800
 8001ae8:	fffffcff 	.word	0xfffffcff

08001aec <HAL_TIM_Base_Init>:
 8001aec:	b570      	push	{r4, r5, r6, lr}
 8001aee:	0004      	movs	r4, r0
 8001af0:	2001      	movs	r0, #1
 8001af2:	2c00      	cmp	r4, #0
 8001af4:	d023      	beq.n	8001b3e <HAL_TIM_Base_Init+0x52>
 8001af6:	0025      	movs	r5, r4
 8001af8:	353d      	adds	r5, #61	; 0x3d
 8001afa:	782b      	ldrb	r3, [r5, #0]
 8001afc:	b2da      	uxtb	r2, r3
 8001afe:	2b00      	cmp	r3, #0
 8001b00:	d105      	bne.n	8001b0e <HAL_TIM_Base_Init+0x22>
 8001b02:	0023      	movs	r3, r4
 8001b04:	333c      	adds	r3, #60	; 0x3c
 8001b06:	0020      	movs	r0, r4
 8001b08:	701a      	strb	r2, [r3, #0]
 8001b0a:	f001 fbb5 	bl	8003278 <HAL_TIM_Base_MspInit>
 8001b0e:	2302      	movs	r3, #2
 8001b10:	702b      	strb	r3, [r5, #0]
 8001b12:	6820      	ldr	r0, [r4, #0]
 8001b14:	1d21      	adds	r1, r4, #4
 8001b16:	f7ff ff99 	bl	8001a4c <TIM_Base_SetConfig>
 8001b1a:	0022      	movs	r2, r4
 8001b1c:	2301      	movs	r3, #1
 8001b1e:	2000      	movs	r0, #0
 8001b20:	3248      	adds	r2, #72	; 0x48
 8001b22:	7013      	strb	r3, [r2, #0]
 8001b24:	3447      	adds	r4, #71	; 0x47
 8001b26:	3a0a      	subs	r2, #10
 8001b28:	7013      	strb	r3, [r2, #0]
 8001b2a:	7053      	strb	r3, [r2, #1]
 8001b2c:	7093      	strb	r3, [r2, #2]
 8001b2e:	70d3      	strb	r3, [r2, #3]
 8001b30:	7113      	strb	r3, [r2, #4]
 8001b32:	7153      	strb	r3, [r2, #5]
 8001b34:	7193      	strb	r3, [r2, #6]
 8001b36:	71d3      	strb	r3, [r2, #7]
 8001b38:	7213      	strb	r3, [r2, #8]
 8001b3a:	7023      	strb	r3, [r4, #0]
 8001b3c:	702b      	strb	r3, [r5, #0]
 8001b3e:	bd70      	pop	{r4, r5, r6, pc}

08001b40 <TIM_ETR_SetConfig>:
 8001b40:	b530      	push	{r4, r5, lr}
 8001b42:	6884      	ldr	r4, [r0, #8]
 8001b44:	4d03      	ldr	r5, [pc, #12]	; (8001b54 <TIM_ETR_SetConfig+0x14>)
 8001b46:	430a      	orrs	r2, r1
 8001b48:	021b      	lsls	r3, r3, #8
 8001b4a:	402c      	ands	r4, r5
 8001b4c:	4313      	orrs	r3, r2
 8001b4e:	4323      	orrs	r3, r4
 8001b50:	6083      	str	r3, [r0, #8]
 8001b52:	bd30      	pop	{r4, r5, pc}
 8001b54:	ffff00ff 	.word	0xffff00ff

08001b58 <HAL_TIM_ConfigClockSource>:
 8001b58:	b5f8      	push	{r3, r4, r5, r6, r7, lr}
 8001b5a:	0005      	movs	r5, r0
 8001b5c:	2302      	movs	r3, #2
 8001b5e:	353c      	adds	r5, #60	; 0x3c
 8001b60:	782a      	ldrb	r2, [r5, #0]
 8001b62:	0004      	movs	r4, r0
 8001b64:	0018      	movs	r0, r3
 8001b66:	2a01      	cmp	r2, #1
 8001b68:	d023      	beq.n	8001bb2 <HAL_TIM_ConfigClockSource+0x5a>
 8001b6a:	0026      	movs	r6, r4
 8001b6c:	2701      	movs	r7, #1
 8001b6e:	363d      	adds	r6, #61	; 0x3d
 8001b70:	702f      	strb	r7, [r5, #0]
 8001b72:	7033      	strb	r3, [r6, #0]
 8001b74:	6820      	ldr	r0, [r4, #0]
 8001b76:	4a3f      	ldr	r2, [pc, #252]	; (8001c74 <HAL_TIM_ConfigClockSource+0x11c>)
 8001b78:	6883      	ldr	r3, [r0, #8]
 8001b7a:	4013      	ands	r3, r2
 8001b7c:	6083      	str	r3, [r0, #8]
 8001b7e:	680b      	ldr	r3, [r1, #0]
 8001b80:	2b60      	cmp	r3, #96	; 0x60
 8001b82:	d04b      	beq.n	8001c1c <HAL_TIM_ConfigClockSource+0xc4>
 8001b84:	d82f      	bhi.n	8001be6 <HAL_TIM_ConfigClockSource+0x8e>
 8001b86:	2b40      	cmp	r3, #64	; 0x40
 8001b88:	d05f      	beq.n	8001c4a <HAL_TIM_ConfigClockSource+0xf2>
 8001b8a:	d813      	bhi.n	8001bb4 <HAL_TIM_ConfigClockSource+0x5c>
 8001b8c:	2b20      	cmp	r3, #32
 8001b8e:	d004      	beq.n	8001b9a <HAL_TIM_ConfigClockSource+0x42>
 8001b90:	d809      	bhi.n	8001ba6 <HAL_TIM_ConfigClockSource+0x4e>
 8001b92:	2210      	movs	r2, #16
 8001b94:	0019      	movs	r1, r3
 8001b96:	4391      	bics	r1, r2
 8001b98:	d107      	bne.n	8001baa <HAL_TIM_ConfigClockSource+0x52>
 8001b9a:	6882      	ldr	r2, [r0, #8]
 8001b9c:	4936      	ldr	r1, [pc, #216]	; (8001c78 <HAL_TIM_ConfigClockSource+0x120>)
 8001b9e:	400a      	ands	r2, r1
 8001ba0:	4313      	orrs	r3, r2
 8001ba2:	2207      	movs	r2, #7
 8001ba4:	e01c      	b.n	8001be0 <HAL_TIM_ConfigClockSource+0x88>
 8001ba6:	2b30      	cmp	r3, #48	; 0x30
 8001ba8:	d0f7      	beq.n	8001b9a <HAL_TIM_ConfigClockSource+0x42>
 8001baa:	2301      	movs	r3, #1
 8001bac:	2000      	movs	r0, #0
 8001bae:	7033      	strb	r3, [r6, #0]
 8001bb0:	7028      	strb	r0, [r5, #0]
 8001bb2:	bdf8      	pop	{r3, r4, r5, r6, r7, pc}
 8001bb4:	2b50      	cmp	r3, #80	; 0x50
 8001bb6:	d1f8      	bne.n	8001baa <HAL_TIM_ConfigClockSource+0x52>
 8001bb8:	684a      	ldr	r2, [r1, #4]
 8001bba:	68cb      	ldr	r3, [r1, #12]
 8001bbc:	6a01      	ldr	r1, [r0, #32]
 8001bbe:	6a04      	ldr	r4, [r0, #32]
 8001bc0:	011b      	lsls	r3, r3, #4
 8001bc2:	43bc      	bics	r4, r7
 8001bc4:	27f0      	movs	r7, #240	; 0xf0
 8001bc6:	6204      	str	r4, [r0, #32]
 8001bc8:	6984      	ldr	r4, [r0, #24]
 8001bca:	43bc      	bics	r4, r7
 8001bcc:	4323      	orrs	r3, r4
 8001bce:	240a      	movs	r4, #10
 8001bd0:	43a1      	bics	r1, r4
 8001bd2:	430a      	orrs	r2, r1
 8001bd4:	6183      	str	r3, [r0, #24]
 8001bd6:	6202      	str	r2, [r0, #32]
 8001bd8:	6883      	ldr	r3, [r0, #8]
 8001bda:	4a27      	ldr	r2, [pc, #156]	; (8001c78 <HAL_TIM_ConfigClockSource+0x120>)
 8001bdc:	401a      	ands	r2, r3
 8001bde:	2357      	movs	r3, #87	; 0x57
 8001be0:	4313      	orrs	r3, r2
 8001be2:	6083      	str	r3, [r0, #8]
 8001be4:	e7e1      	b.n	8001baa <HAL_TIM_ConfigClockSource+0x52>
 8001be6:	2b70      	cmp	r3, #112	; 0x70
 8001be8:	d00d      	beq.n	8001c06 <HAL_TIM_ConfigClockSource+0xae>
 8001bea:	2280      	movs	r2, #128	; 0x80
 8001bec:	0192      	lsls	r2, r2, #6
 8001bee:	4293      	cmp	r3, r2
 8001bf0:	d1db      	bne.n	8001baa <HAL_TIM_ConfigClockSource+0x52>
 8001bf2:	68cb      	ldr	r3, [r1, #12]
 8001bf4:	684a      	ldr	r2, [r1, #4]
 8001bf6:	6889      	ldr	r1, [r1, #8]
 8001bf8:	f7ff ffa2 	bl	8001b40 <TIM_ETR_SetConfig>
 8001bfc:	2380      	movs	r3, #128	; 0x80
 8001bfe:	6822      	ldr	r2, [r4, #0]
 8001c00:	01db      	lsls	r3, r3, #7
 8001c02:	6891      	ldr	r1, [r2, #8]
 8001c04:	e007      	b.n	8001c16 <HAL_TIM_ConfigClockSource+0xbe>
 8001c06:	68cb      	ldr	r3, [r1, #12]
 8001c08:	684a      	ldr	r2, [r1, #4]
 8001c0a:	6889      	ldr	r1, [r1, #8]
 8001c0c:	f7ff ff98 	bl	8001b40 <TIM_ETR_SetConfig>
 8001c10:	2377      	movs	r3, #119	; 0x77
 8001c12:	6822      	ldr	r2, [r4, #0]
 8001c14:	6891      	ldr	r1, [r2, #8]
 8001c16:	430b      	orrs	r3, r1
 8001c18:	6093      	str	r3, [r2, #8]
 8001c1a:	e7c6      	b.n	8001baa <HAL_TIM_ConfigClockSource+0x52>
 8001c1c:	2410      	movs	r4, #16
 8001c1e:	684b      	ldr	r3, [r1, #4]
 8001c20:	68ca      	ldr	r2, [r1, #12]
 8001c22:	6a01      	ldr	r1, [r0, #32]
 8001c24:	4f15      	ldr	r7, [pc, #84]	; (8001c7c <HAL_TIM_ConfigClockSource+0x124>)
 8001c26:	43a1      	bics	r1, r4
 8001c28:	6201      	str	r1, [r0, #32]
 8001c2a:	6984      	ldr	r4, [r0, #24]
 8001c2c:	0312      	lsls	r2, r2, #12
 8001c2e:	403c      	ands	r4, r7
 8001c30:	4322      	orrs	r2, r4
 8001c32:	24a0      	movs	r4, #160	; 0xa0
 8001c34:	6a01      	ldr	r1, [r0, #32]
 8001c36:	011b      	lsls	r3, r3, #4
 8001c38:	43a1      	bics	r1, r4
 8001c3a:	430b      	orrs	r3, r1
 8001c3c:	6182      	str	r2, [r0, #24]
 8001c3e:	6203      	str	r3, [r0, #32]
 8001c40:	6883      	ldr	r3, [r0, #8]
 8001c42:	4a0d      	ldr	r2, [pc, #52]	; (8001c78 <HAL_TIM_ConfigClockSource+0x120>)
 8001c44:	401a      	ands	r2, r3
 8001c46:	2367      	movs	r3, #103	; 0x67
 8001c48:	e7ca      	b.n	8001be0 <HAL_TIM_ConfigClockSource+0x88>
 8001c4a:	684a      	ldr	r2, [r1, #4]
 8001c4c:	68cb      	ldr	r3, [r1, #12]
 8001c4e:	6a01      	ldr	r1, [r0, #32]
 8001c50:	6a04      	ldr	r4, [r0, #32]
 8001c52:	011b      	lsls	r3, r3, #4
 8001c54:	43bc      	bics	r4, r7
 8001c56:	27f0      	movs	r7, #240	; 0xf0
 8001c58:	6204      	str	r4, [r0, #32]
 8001c5a:	6984      	ldr	r4, [r0, #24]
 8001c5c:	43bc      	bics	r4, r7
 8001c5e:	4323      	orrs	r3, r4
 8001c60:	240a      	movs	r4, #10
 8001c62:	43a1      	bics	r1, r4
 8001c64:	430a      	orrs	r2, r1
 8001c66:	6183      	str	r3, [r0, #24]
 8001c68:	6202      	str	r2, [r0, #32]
 8001c6a:	6883      	ldr	r3, [r0, #8]
 8001c6c:	4a02      	ldr	r2, [pc, #8]	; (8001c78 <HAL_TIM_ConfigClockSource+0x120>)
 8001c6e:	401a      	ands	r2, r3
 8001c70:	2347      	movs	r3, #71	; 0x47
 8001c72:	e7b5      	b.n	8001be0 <HAL_TIM_ConfigClockSource+0x88>
 8001c74:	ffce0088 	.word	0xffce0088
 8001c78:	ffcfff8f 	.word	0xffcfff8f
 8001c7c:	ffff0fff 	.word	0xffff0fff

08001c80 <HAL_TIMEx_MasterConfigSynchronization>:
 8001c80:	b5f0      	push	{r4, r5, r6, r7, lr}
 8001c82:	0004      	movs	r4, r0
 8001c84:	2202      	movs	r2, #2
 8001c86:	343c      	adds	r4, #60	; 0x3c
 8001c88:	7825      	ldrb	r5, [r4, #0]
 8001c8a:	0003      	movs	r3, r0
 8001c8c:	0010      	movs	r0, r2
 8001c8e:	2d01      	cmp	r5, #1
 8001c90:	d026      	beq.n	8001ce0 <HAL_TIMEx_MasterConfigSynchronization+0x60>
 8001c92:	001d      	movs	r5, r3
 8001c94:	353d      	adds	r5, #61	; 0x3d
 8001c96:	702a      	strb	r2, [r5, #0]
 8001c98:	681b      	ldr	r3, [r3, #0]
 8001c9a:	4e12      	ldr	r6, [pc, #72]	; (8001ce4 <HAL_TIMEx_MasterConfigSynchronization+0x64>)
 8001c9c:	685a      	ldr	r2, [r3, #4]
 8001c9e:	6898      	ldr	r0, [r3, #8]
 8001ca0:	42b3      	cmp	r3, r6
 8001ca2:	d103      	bne.n	8001cac <HAL_TIMEx_MasterConfigSynchronization+0x2c>
 8001ca4:	4f10      	ldr	r7, [pc, #64]	; (8001ce8 <HAL_TIMEx_MasterConfigSynchronization+0x68>)
 8001ca6:	403a      	ands	r2, r7
 8001ca8:	684f      	ldr	r7, [r1, #4]
 8001caa:	433a      	orrs	r2, r7
 8001cac:	2770      	movs	r7, #112	; 0x70
 8001cae:	43ba      	bics	r2, r7
 8001cb0:	680f      	ldr	r7, [r1, #0]
 8001cb2:	433a      	orrs	r2, r7
 8001cb4:	605a      	str	r2, [r3, #4]
 8001cb6:	42b3      	cmp	r3, r6
 8001cb8:	d009      	beq.n	8001cce <HAL_TIMEx_MasterConfigSynchronization+0x4e>
 8001cba:	2280      	movs	r2, #128	; 0x80
 8001cbc:	05d2      	lsls	r2, r2, #23
 8001cbe:	4293      	cmp	r3, r2
 8001cc0:	d005      	beq.n	8001cce <HAL_TIMEx_MasterConfigSynchronization+0x4e>
 8001cc2:	4a0a      	ldr	r2, [pc, #40]	; (8001cec <HAL_TIMEx_MasterConfigSynchronization+0x6c>)
 8001cc4:	4293      	cmp	r3, r2
 8001cc6:	d002      	beq.n	8001cce <HAL_TIMEx_MasterConfigSynchronization+0x4e>
 8001cc8:	4a09      	ldr	r2, [pc, #36]	; (8001cf0 <HAL_TIMEx_MasterConfigSynchronization+0x70>)
 8001cca:	4293      	cmp	r3, r2
 8001ccc:	d104      	bne.n	8001cd8 <HAL_TIMEx_MasterConfigSynchronization+0x58>
 8001cce:	2280      	movs	r2, #128	; 0x80
 8001cd0:	4390      	bics	r0, r2
 8001cd2:	688a      	ldr	r2, [r1, #8]
 8001cd4:	4310      	orrs	r0, r2
 8001cd6:	6098      	str	r0, [r3, #8]
 8001cd8:	2301      	movs	r3, #1
 8001cda:	2000      	movs	r0, #0
 8001cdc:	702b      	strb	r3, [r5, #0]
 8001cde:	7020      	strb	r0, [r4, #0]
 8001ce0:	bdf0      	pop	{r4, r5, r6, r7, pc}
 8001ce2:	46c0      	nop			; (mov r8, r8)
 8001ce4:	40012c00 	.word	0x40012c00
 8001ce8:	ff0fffff 	.word	0xff0fffff
 8001cec:	40000400 	.word	0x40000400
 8001cf0:	40014000 	.word	0x40014000

08001cf4 <HAL_TIMEx_CommutCallback>:
 8001cf4:	4770      	bx	lr

08001cf6 <HAL_TIMEx_BreakCallback>:
 8001cf6:	4770      	bx	lr

08001cf8 <HAL_TIMEx_Break2Callback>:
 8001cf8:	4770      	bx	lr
	...

08001cfc <UART_SetConfig>:
 8001cfc:	b5f8      	push	{r3, r4, r5, r6, r7, lr}
 8001cfe:	0004      	movs	r4, r0
 8001d00:	6925      	ldr	r5, [r4, #16]
 8001d02:	68a1      	ldr	r1, [r4, #8]
 8001d04:	6802      	ldr	r2, [r0, #0]
 8001d06:	4329      	orrs	r1, r5
 8001d08:	6965      	ldr	r5, [r4, #20]
 8001d0a:	69c3      	ldr	r3, [r0, #28]
 8001d0c:	4329      	orrs	r1, r5
 8001d0e:	6810      	ldr	r0, [r2, #0]
 8001d10:	4d74      	ldr	r5, [pc, #464]	; (8001ee4 <UART_SetConfig+0x1e8>)
 8001d12:	4319      	orrs	r1, r3
 8001d14:	4028      	ands	r0, r5
 8001d16:	4301      	orrs	r1, r0
 8001d18:	6011      	str	r1, [r2, #0]
 8001d1a:	6851      	ldr	r1, [r2, #4]
 8001d1c:	4872      	ldr	r0, [pc, #456]	; (8001ee8 <UART_SetConfig+0x1ec>)
 8001d1e:	69a5      	ldr	r5, [r4, #24]
 8001d20:	4001      	ands	r1, r0
 8001d22:	68e0      	ldr	r0, [r4, #12]
 8001d24:	4301      	orrs	r1, r0
 8001d26:	4871      	ldr	r0, [pc, #452]	; (8001eec <UART_SetConfig+0x1f0>)
 8001d28:	6051      	str	r1, [r2, #4]
 8001d2a:	4282      	cmp	r2, r0
 8001d2c:	d001      	beq.n	8001d32 <UART_SetConfig+0x36>
 8001d2e:	6a21      	ldr	r1, [r4, #32]
 8001d30:	430d      	orrs	r5, r1
 8001d32:	6891      	ldr	r1, [r2, #8]
 8001d34:	4e6e      	ldr	r6, [pc, #440]	; (8001ef0 <UART_SetConfig+0x1f4>)
 8001d36:	4031      	ands	r1, r6
 8001d38:	4329      	orrs	r1, r5
 8001d3a:	250f      	movs	r5, #15
 8001d3c:	6091      	str	r1, [r2, #8]
 8001d3e:	6ad1      	ldr	r1, [r2, #44]	; 0x2c
 8001d40:	43a9      	bics	r1, r5
 8001d42:	6a65      	ldr	r5, [r4, #36]	; 0x24
 8001d44:	4329      	orrs	r1, r5
 8001d46:	62d1      	str	r1, [r2, #44]	; 0x2c
 8001d48:	496a      	ldr	r1, [pc, #424]	; (8001ef4 <UART_SetConfig+0x1f8>)
 8001d4a:	428a      	cmp	r2, r1
 8001d4c:	d12d      	bne.n	8001daa <UART_SetConfig+0xae>
 8001d4e:	2103      	movs	r1, #3
 8001d50:	4a69      	ldr	r2, [pc, #420]	; (8001ef8 <UART_SetConfig+0x1fc>)
 8001d52:	6d52      	ldr	r2, [r2, #84]	; 0x54
 8001d54:	400a      	ands	r2, r1
 8001d56:	3a01      	subs	r2, #1
 8001d58:	4968      	ldr	r1, [pc, #416]	; (8001efc <UART_SetConfig+0x200>)
 8001d5a:	2a02      	cmp	r2, #2
 8001d5c:	d92d      	bls.n	8001dba <UART_SetConfig+0xbe>
 8001d5e:	2280      	movs	r2, #128	; 0x80
 8001d60:	0212      	lsls	r2, r2, #8
 8001d62:	4293      	cmp	r3, r2
 8001d64:	d000      	beq.n	8001d68 <UART_SetConfig+0x6c>
 8001d66:	e0b2      	b.n	8001ece <UART_SetConfig+0x1d2>
 8001d68:	f7ff fc68 	bl	800163c <HAL_RCC_GetPCLK1Freq>
 8001d6c:	1e03      	subs	r3, r0, #0
 8001d6e:	d056      	beq.n	8001e1e <UART_SetConfig+0x122>
 8001d70:	6a62      	ldr	r2, [r4, #36]	; 0x24
 8001d72:	4963      	ldr	r1, [pc, #396]	; (8001f00 <UART_SetConfig+0x204>)
 8001d74:	0052      	lsls	r2, r2, #1
 8001d76:	5a51      	ldrh	r1, [r2, r1]
 8001d78:	0018      	movs	r0, r3
 8001d7a:	f7fe f9e1 	bl	8000140 <__udivsi3>
 8001d7e:	6865      	ldr	r5, [r4, #4]
 8001d80:	0040      	lsls	r0, r0, #1
 8001d82:	086b      	lsrs	r3, r5, #1
 8001d84:	0029      	movs	r1, r5
 8001d86:	18c0      	adds	r0, r0, r3
 8001d88:	f7fe f9da 	bl	8000140 <__udivsi3>
 8001d8c:	495d      	ldr	r1, [pc, #372]	; (8001f04 <UART_SetConfig+0x208>)
 8001d8e:	b282      	uxth	r2, r0
 8001d90:	3a10      	subs	r2, #16
 8001d92:	0403      	lsls	r3, r0, #16
 8001d94:	428a      	cmp	r2, r1
 8001d96:	d837      	bhi.n	8001e08 <UART_SetConfig+0x10c>
 8001d98:	220f      	movs	r2, #15
 8001d9a:	031b      	lsls	r3, r3, #12
 8001d9c:	4390      	bics	r0, r2
 8001d9e:	b280      	uxth	r0, r0
 8001da0:	6822      	ldr	r2, [r4, #0]
 8001da2:	0f5b      	lsrs	r3, r3, #29
 8001da4:	4318      	orrs	r0, r3
 8001da6:	60d0      	str	r0, [r2, #12]
 8001da8:	e039      	b.n	8001e1e <UART_SetConfig+0x122>
 8001daa:	4957      	ldr	r1, [pc, #348]	; (8001f08 <UART_SetConfig+0x20c>)
 8001dac:	428a      	cmp	r2, r1
 8001dae:	d113      	bne.n	8001dd8 <UART_SetConfig+0xdc>
 8001db0:	210c      	movs	r1, #12
 8001db2:	4a51      	ldr	r2, [pc, #324]	; (8001ef8 <UART_SetConfig+0x1fc>)
 8001db4:	6d52      	ldr	r2, [r2, #84]	; 0x54
 8001db6:	400a      	ands	r2, r1
 8001db8:	4954      	ldr	r1, [pc, #336]	; (8001f0c <UART_SetConfig+0x210>)
 8001dba:	5c88      	ldrb	r0, [r1, r2]
 8001dbc:	2280      	movs	r2, #128	; 0x80
 8001dbe:	0212      	lsls	r2, r2, #8
 8001dc0:	4293      	cmp	r3, r2
 8001dc2:	d000      	beq.n	8001dc6 <UART_SetConfig+0xca>
 8001dc4:	e067      	b.n	8001e96 <UART_SetConfig+0x19a>
 8001dc6:	2808      	cmp	r0, #8
 8001dc8:	d81e      	bhi.n	8001e08 <UART_SetConfig+0x10c>
 8001dca:	f7fe f99b 	bl	8000104 <__gnu_thumb1_case_sqi>
 8001dce:	1dcd      	.short	0x1dcd
 8001dd0:	1d5f1d62 	.word	0x1d5f1d62
 8001dd4:	1d1d      	.short	0x1d1d
 8001dd6:	d1          	.byte	0xd1
 8001dd7:	00          	.byte	0x00
 8001dd8:	494d      	ldr	r1, [pc, #308]	; (8001f10 <UART_SetConfig+0x214>)
 8001dda:	428a      	cmp	r2, r1
 8001ddc:	d0bf      	beq.n	8001d5e <UART_SetConfig+0x62>
 8001dde:	494d      	ldr	r1, [pc, #308]	; (8001f14 <UART_SetConfig+0x218>)
 8001de0:	428a      	cmp	r2, r1
 8001de2:	d0bc      	beq.n	8001d5e <UART_SetConfig+0x62>
 8001de4:	4282      	cmp	r2, r0
 8001de6:	d10f      	bne.n	8001e08 <UART_SetConfig+0x10c>
 8001de8:	22c0      	movs	r2, #192	; 0xc0
 8001dea:	2180      	movs	r1, #128	; 0x80
 8001dec:	4b42      	ldr	r3, [pc, #264]	; (8001ef8 <UART_SetConfig+0x1fc>)
 8001dee:	0112      	lsls	r2, r2, #4
 8001df0:	6d5b      	ldr	r3, [r3, #84]	; 0x54
 8001df2:	0109      	lsls	r1, r1, #4
 8001df4:	4013      	ands	r3, r2
 8001df6:	428b      	cmp	r3, r1
 8001df8:	d01b      	beq.n	8001e32 <UART_SetConfig+0x136>
 8001dfa:	d807      	bhi.n	8001e0c <UART_SetConfig+0x110>
 8001dfc:	2b00      	cmp	r3, #0
 8001dfe:	d00a      	beq.n	8001e16 <UART_SetConfig+0x11a>
 8001e00:	2280      	movs	r2, #128	; 0x80
 8001e02:	00d2      	lsls	r2, r2, #3
 8001e04:	4293      	cmp	r3, r2
 8001e06:	d011      	beq.n	8001e2c <UART_SetConfig+0x130>
 8001e08:	2001      	movs	r0, #1
 8001e0a:	e009      	b.n	8001e20 <UART_SetConfig+0x124>
 8001e0c:	4293      	cmp	r3, r2
 8001e0e:	d1fb      	bne.n	8001e08 <UART_SetConfig+0x10c>
 8001e10:	2680      	movs	r6, #128	; 0x80
 8001e12:	0236      	lsls	r6, r6, #8
 8001e14:	e00e      	b.n	8001e34 <UART_SetConfig+0x138>
 8001e16:	f7ff fc11 	bl	800163c <HAL_RCC_GetPCLK1Freq>
 8001e1a:	1e06      	subs	r6, r0, #0
 8001e1c:	d10a      	bne.n	8001e34 <UART_SetConfig+0x138>
 8001e1e:	2000      	movs	r0, #0
 8001e20:	4b3d      	ldr	r3, [pc, #244]	; (8001f18 <UART_SetConfig+0x21c>)
 8001e22:	66a3      	str	r3, [r4, #104]	; 0x68
 8001e24:	2300      	movs	r3, #0
 8001e26:	6723      	str	r3, [r4, #112]	; 0x70
 8001e28:	6763      	str	r3, [r4, #116]	; 0x74
 8001e2a:	bdf8      	pop	{r3, r4, r5, r6, r7, pc}
 8001e2c:	f7ff fb14 	bl	8001458 <HAL_RCC_GetSysClockFreq>
 8001e30:	e7f3      	b.n	8001e1a <UART_SetConfig+0x11e>
 8001e32:	4e3a      	ldr	r6, [pc, #232]	; (8001f1c <UART_SetConfig+0x220>)
 8001e34:	6a63      	ldr	r3, [r4, #36]	; 0x24
 8001e36:	4a32      	ldr	r2, [pc, #200]	; (8001f00 <UART_SetConfig+0x204>)
 8001e38:	005b      	lsls	r3, r3, #1
 8001e3a:	5a9f      	ldrh	r7, [r3, r2]
 8001e3c:	0030      	movs	r0, r6
 8001e3e:	0039      	movs	r1, r7
 8001e40:	f7fe f97e 	bl	8000140 <__udivsi3>
 8001e44:	2303      	movs	r3, #3
 8001e46:	6865      	ldr	r5, [r4, #4]
 8001e48:	436b      	muls	r3, r5
 8001e4a:	4283      	cmp	r3, r0
 8001e4c:	d8dc      	bhi.n	8001e08 <UART_SetConfig+0x10c>
 8001e4e:	032b      	lsls	r3, r5, #12
 8001e50:	4283      	cmp	r3, r0
 8001e52:	d3d9      	bcc.n	8001e08 <UART_SetConfig+0x10c>
 8001e54:	2300      	movs	r3, #0
 8001e56:	003a      	movs	r2, r7
 8001e58:	0030      	movs	r0, r6
 8001e5a:	0019      	movs	r1, r3
 8001e5c:	f7fe fae6 	bl	800042c <__aeabi_uldivmod>
 8001e60:	2700      	movs	r7, #0
 8001e62:	0e06      	lsrs	r6, r0, #24
 8001e64:	020b      	lsls	r3, r1, #8
 8001e66:	4333      	orrs	r3, r6
 8001e68:	0202      	lsls	r2, r0, #8
 8001e6a:	086e      	lsrs	r6, r5, #1
 8001e6c:	1992      	adds	r2, r2, r6
 8001e6e:	417b      	adcs	r3, r7
 8001e70:	0010      	movs	r0, r2
 8001e72:	0019      	movs	r1, r3
 8001e74:	002a      	movs	r2, r5
 8001e76:	003b      	movs	r3, r7
 8001e78:	f7fe fad8 	bl	800042c <__aeabi_uldivmod>
 8001e7c:	4b28      	ldr	r3, [pc, #160]	; (8001f20 <UART_SetConfig+0x224>)
 8001e7e:	18c2      	adds	r2, r0, r3
 8001e80:	4b28      	ldr	r3, [pc, #160]	; (8001f24 <UART_SetConfig+0x228>)
 8001e82:	429a      	cmp	r2, r3
 8001e84:	d8c0      	bhi.n	8001e08 <UART_SetConfig+0x10c>
 8001e86:	6823      	ldr	r3, [r4, #0]
 8001e88:	60d8      	str	r0, [r3, #12]
 8001e8a:	e7c8      	b.n	8001e1e <UART_SetConfig+0x122>
 8001e8c:	f7ff fae4 	bl	8001458 <HAL_RCC_GetSysClockFreq>
 8001e90:	e76c      	b.n	8001d6c <UART_SetConfig+0x70>
 8001e92:	4b22      	ldr	r3, [pc, #136]	; (8001f1c <UART_SetConfig+0x220>)
 8001e94:	e76c      	b.n	8001d70 <UART_SetConfig+0x74>
 8001e96:	2808      	cmp	r0, #8
 8001e98:	d8b6      	bhi.n	8001e08 <UART_SetConfig+0x10c>
 8001e9a:	f7fe f933 	bl	8000104 <__gnu_thumb1_case_sqi>
 8001e9e:	b518      	.short	0xb518
 8001ea0:	b51db520 	.word	0xb51db520
 8001ea4:	b5b5      	.short	0xb5b5
 8001ea6:	05          	.byte	0x05
 8001ea7:	00          	.byte	0x00
 8001ea8:	2080      	movs	r0, #128	; 0x80
 8001eaa:	0200      	lsls	r0, r0, #8
 8001eac:	6a63      	ldr	r3, [r4, #36]	; 0x24
 8001eae:	4a14      	ldr	r2, [pc, #80]	; (8001f00 <UART_SetConfig+0x204>)
 8001eb0:	005b      	lsls	r3, r3, #1
 8001eb2:	5a99      	ldrh	r1, [r3, r2]
 8001eb4:	f7fe f944 	bl	8000140 <__udivsi3>
 8001eb8:	6865      	ldr	r5, [r4, #4]
 8001eba:	086b      	lsrs	r3, r5, #1
 8001ebc:	18c0      	adds	r0, r0, r3
 8001ebe:	0029      	movs	r1, r5
 8001ec0:	f7fe f93e 	bl	8000140 <__udivsi3>
 8001ec4:	b280      	uxth	r0, r0
 8001ec6:	0002      	movs	r2, r0
 8001ec8:	4b0e      	ldr	r3, [pc, #56]	; (8001f04 <UART_SetConfig+0x208>)
 8001eca:	3a10      	subs	r2, #16
 8001ecc:	e7d9      	b.n	8001e82 <UART_SetConfig+0x186>
 8001ece:	f7ff fbb5 	bl	800163c <HAL_RCC_GetPCLK1Freq>
 8001ed2:	2800      	cmp	r0, #0
 8001ed4:	d0a3      	beq.n	8001e1e <UART_SetConfig+0x122>
 8001ed6:	e7e9      	b.n	8001eac <UART_SetConfig+0x1b0>
 8001ed8:	f7ff fabe 	bl	8001458 <HAL_RCC_GetSysClockFreq>
 8001edc:	e7f9      	b.n	8001ed2 <UART_SetConfig+0x1d6>
 8001ede:	480f      	ldr	r0, [pc, #60]	; (8001f1c <UART_SetConfig+0x220>)
 8001ee0:	e7e4      	b.n	8001eac <UART_SetConfig+0x1b0>
 8001ee2:	46c0      	nop			; (mov r8, r8)
 8001ee4:	cfff69f3 	.word	0xcfff69f3
 8001ee8:	ffffcfff 	.word	0xffffcfff
 8001eec:	40008000 	.word	0x40008000
 8001ef0:	11fff4ff 	.word	0x11fff4ff
 8001ef4:	40013800 	.word	0x40013800
 8001ef8:	40021000 	.word	0x40021000
 8001efc:	08003498 	.word	0x08003498
 8001f00:	080034a8 	.word	0x080034a8
 8001f04:	0000ffef 	.word	0x0000ffef
 8001f08:	40004400 	.word	0x40004400
 8001f0c:	0800349b 	.word	0x0800349b
 8001f10:	40004800 	.word	0x40004800
 8001f14:	40004c00 	.word	0x40004c00
 8001f18:	00010001 	.word	0x00010001
 8001f1c:	00f42400 	.word	0x00f42400
 8001f20:	fffffd00 	.word	0xfffffd00
 8001f24:	000ffcff 	.word	0x000ffcff

08001f28 <UART_AdvFeatureConfig>:
 8001f28:	6a83      	ldr	r3, [r0, #40]	; 0x28
 8001f2a:	b530      	push	{r4, r5, lr}
 8001f2c:	07da      	lsls	r2, r3, #31
 8001f2e:	d506      	bpl.n	8001f3e <UART_AdvFeatureConfig+0x16>
 8001f30:	6801      	ldr	r1, [r0, #0]
 8001f32:	4c28      	ldr	r4, [pc, #160]	; (8001fd4 <UART_AdvFeatureConfig+0xac>)
 8001f34:	684a      	ldr	r2, [r1, #4]
 8001f36:	4022      	ands	r2, r4
 8001f38:	6ac4      	ldr	r4, [r0, #44]	; 0x2c
 8001f3a:	4322      	orrs	r2, r4
 8001f3c:	604a      	str	r2, [r1, #4]
 8001f3e:	079a      	lsls	r2, r3, #30
 8001f40:	d506      	bpl.n	8001f50 <UART_AdvFeatureConfig+0x28>
 8001f42:	6801      	ldr	r1, [r0, #0]
 8001f44:	4c24      	ldr	r4, [pc, #144]	; (8001fd8 <UART_AdvFeatureConfig+0xb0>)
 8001f46:	684a      	ldr	r2, [r1, #4]
 8001f48:	4022      	ands	r2, r4
 8001f4a:	6b04      	ldr	r4, [r0, #48]	; 0x30
 8001f4c:	4322      	orrs	r2, r4
 8001f4e:	604a      	str	r2, [r1, #4]
 8001f50:	075a      	lsls	r2, r3, #29
 8001f52:	d506      	bpl.n	8001f62 <UART_AdvFeatureConfig+0x3a>
 8001f54:	6801      	ldr	r1, [r0, #0]
 8001f56:	4c21      	ldr	r4, [pc, #132]	; (8001fdc <UART_AdvFeatureConfig+0xb4>)
 8001f58:	684a      	ldr	r2, [r1, #4]
 8001f5a:	4022      	ands	r2, r4
 8001f5c:	6b44      	ldr	r4, [r0, #52]	; 0x34
 8001f5e:	4322      	orrs	r2, r4
 8001f60:	604a      	str	r2, [r1, #4]
 8001f62:	071a      	lsls	r2, r3, #28
 8001f64:	d506      	bpl.n	8001f74 <UART_AdvFeatureConfig+0x4c>
 8001f66:	6801      	ldr	r1, [r0, #0]
 8001f68:	4c1d      	ldr	r4, [pc, #116]	; (8001fe0 <UART_AdvFeatureConfig+0xb8>)
 8001f6a:	684a      	ldr	r2, [r1, #4]
 8001f6c:	4022      	ands	r2, r4
 8001f6e:	6b84      	ldr	r4, [r0, #56]	; 0x38
 8001f70:	4322      	orrs	r2, r4
 8001f72:	604a      	str	r2, [r1, #4]
 8001f74:	06da      	lsls	r2, r3, #27
 8001f76:	d506      	bpl.n	8001f86 <UART_AdvFeatureConfig+0x5e>
 8001f78:	6801      	ldr	r1, [r0, #0]
 8001f7a:	4c1a      	ldr	r4, [pc, #104]	; (8001fe4 <UART_AdvFeatureConfig+0xbc>)
 8001f7c:	688a      	ldr	r2, [r1, #8]
 8001f7e:	4022      	ands	r2, r4
 8001f80:	6bc4      	ldr	r4, [r0, #60]	; 0x3c
 8001f82:	4322      	orrs	r2, r4
 8001f84:	608a      	str	r2, [r1, #8]
 8001f86:	069a      	lsls	r2, r3, #26
 8001f88:	d506      	bpl.n	8001f98 <UART_AdvFeatureConfig+0x70>
 8001f8a:	6801      	ldr	r1, [r0, #0]
 8001f8c:	4c16      	ldr	r4, [pc, #88]	; (8001fe8 <UART_AdvFeatureConfig+0xc0>)
 8001f8e:	688a      	ldr	r2, [r1, #8]
 8001f90:	4022      	ands	r2, r4
 8001f92:	6c04      	ldr	r4, [r0, #64]	; 0x40
 8001f94:	4322      	orrs	r2, r4
 8001f96:	608a      	str	r2, [r1, #8]
 8001f98:	065a      	lsls	r2, r3, #25
 8001f9a:	d510      	bpl.n	8001fbe <UART_AdvFeatureConfig+0x96>
 8001f9c:	6801      	ldr	r1, [r0, #0]
 8001f9e:	4d13      	ldr	r5, [pc, #76]	; (8001fec <UART_AdvFeatureConfig+0xc4>)
 8001fa0:	684a      	ldr	r2, [r1, #4]
 8001fa2:	6c44      	ldr	r4, [r0, #68]	; 0x44
 8001fa4:	402a      	ands	r2, r5
 8001fa6:	4322      	orrs	r2, r4
 8001fa8:	604a      	str	r2, [r1, #4]
 8001faa:	2280      	movs	r2, #128	; 0x80
 8001fac:	0352      	lsls	r2, r2, #13
 8001fae:	4294      	cmp	r4, r2
 8001fb0:	d105      	bne.n	8001fbe <UART_AdvFeatureConfig+0x96>
 8001fb2:	684a      	ldr	r2, [r1, #4]
 8001fb4:	4c0e      	ldr	r4, [pc, #56]	; (8001ff0 <UART_AdvFeatureConfig+0xc8>)
 8001fb6:	4022      	ands	r2, r4
 8001fb8:	6c84      	ldr	r4, [r0, #72]	; 0x48
 8001fba:	4322      	orrs	r2, r4
 8001fbc:	604a      	str	r2, [r1, #4]
 8001fbe:	061b      	lsls	r3, r3, #24
 8001fc0:	d506      	bpl.n	8001fd0 <UART_AdvFeatureConfig+0xa8>
 8001fc2:	6802      	ldr	r2, [r0, #0]
 8001fc4:	490b      	ldr	r1, [pc, #44]	; (8001ff4 <UART_AdvFeatureConfig+0xcc>)
 8001fc6:	6853      	ldr	r3, [r2, #4]
 8001fc8:	400b      	ands	r3, r1
 8001fca:	6cc1      	ldr	r1, [r0, #76]	; 0x4c
 8001fcc:	430b      	orrs	r3, r1
 8001fce:	6053      	str	r3, [r2, #4]
 8001fd0:	bd30      	pop	{r4, r5, pc}
 8001fd2:	46c0      	nop			; (mov r8, r8)
 8001fd4:	fffdffff 	.word	0xfffdffff
 8001fd8:	fffeffff 	.word	0xfffeffff
 8001fdc:	fffbffff 	.word	0xfffbffff
 8001fe0:	ffff7fff 	.word	0xffff7fff
 8001fe4:	ffffefff 	.word	0xffffefff
 8001fe8:	ffffdfff 	.word	0xffffdfff
 8001fec:	ffefffff 	.word	0xffefffff
 8001ff0:	ff9fffff 	.word	0xff9fffff
 8001ff4:	fff7ffff 	.word	0xfff7ffff

08001ff8 <UART_WaitOnFlagUntilTimeout>:
 8001ff8:	b5f7      	push	{r0, r1, r2, r4, r5, r6, r7, lr}
 8001ffa:	2780      	movs	r7, #128	; 0x80
 8001ffc:	0004      	movs	r4, r0
 8001ffe:	000d      	movs	r5, r1
 8002000:	0016      	movs	r6, r2
 8002002:	9301      	str	r3, [sp, #4]
 8002004:	013f      	lsls	r7, r7, #4
 8002006:	6822      	ldr	r2, [r4, #0]
 8002008:	69d3      	ldr	r3, [r2, #28]
 800200a:	402b      	ands	r3, r5
 800200c:	1b5b      	subs	r3, r3, r5
 800200e:	4259      	negs	r1, r3
 8002010:	414b      	adcs	r3, r1
 8002012:	42b3      	cmp	r3, r6
 8002014:	d001      	beq.n	800201a <UART_WaitOnFlagUntilTimeout+0x22>
 8002016:	2000      	movs	r0, #0
 8002018:	e02b      	b.n	8002072 <UART_WaitOnFlagUntilTimeout+0x7a>
 800201a:	9b08      	ldr	r3, [sp, #32]
 800201c:	3301      	adds	r3, #1
 800201e:	d0f3      	beq.n	8002008 <UART_WaitOnFlagUntilTimeout+0x10>
 8002020:	f7fe fb62 	bl	80006e8 <HAL_GetTick>
 8002024:	9b01      	ldr	r3, [sp, #4]
 8002026:	1ac0      	subs	r0, r0, r3
 8002028:	9b08      	ldr	r3, [sp, #32]
 800202a:	4298      	cmp	r0, r3
 800202c:	d801      	bhi.n	8002032 <UART_WaitOnFlagUntilTimeout+0x3a>
 800202e:	2b00      	cmp	r3, #0
 8002030:	d120      	bne.n	8002074 <UART_WaitOnFlagUntilTimeout+0x7c>
 8002032:	f3ef 8010 	mrs	r0, PRIMASK
 8002036:	2201      	movs	r2, #1
 8002038:	f382 8810 	msr	PRIMASK, r2
 800203c:	6821      	ldr	r1, [r4, #0]
 800203e:	4d21      	ldr	r5, [pc, #132]	; (80020c4 <UART_WaitOnFlagUntilTimeout+0xcc>)
 8002040:	680b      	ldr	r3, [r1, #0]
 8002042:	402b      	ands	r3, r5
 8002044:	600b      	str	r3, [r1, #0]
 8002046:	f380 8810 	msr	PRIMASK, r0
 800204a:	f3ef 8010 	mrs	r0, PRIMASK
 800204e:	f382 8810 	msr	PRIMASK, r2
 8002052:	6821      	ldr	r1, [r4, #0]
 8002054:	688b      	ldr	r3, [r1, #8]
 8002056:	4393      	bics	r3, r2
 8002058:	608b      	str	r3, [r1, #8]
 800205a:	f380 8810 	msr	PRIMASK, r0
 800205e:	0022      	movs	r2, r4
 8002060:	2320      	movs	r3, #32
 8002062:	3208      	adds	r2, #8
 8002064:	67d3      	str	r3, [r2, #124]	; 0x7c
 8002066:	3280      	adds	r2, #128	; 0x80
 8002068:	6013      	str	r3, [r2, #0]
 800206a:	2300      	movs	r3, #0
 800206c:	2003      	movs	r0, #3
 800206e:	3480      	adds	r4, #128	; 0x80
 8002070:	7023      	strb	r3, [r4, #0]
 8002072:	bdfe      	pop	{r1, r2, r3, r4, r5, r6, r7, pc}
 8002074:	2104      	movs	r1, #4
 8002076:	6823      	ldr	r3, [r4, #0]
 8002078:	681a      	ldr	r2, [r3, #0]
 800207a:	420a      	tst	r2, r1
 800207c:	d0c3      	beq.n	8002006 <UART_WaitOnFlagUntilTimeout+0xe>
 800207e:	69da      	ldr	r2, [r3, #28]
 8002080:	423a      	tst	r2, r7
 8002082:	d0c0      	beq.n	8002006 <UART_WaitOnFlagUntilTimeout+0xe>
 8002084:	621f      	str	r7, [r3, #32]
 8002086:	f3ef 8010 	mrs	r0, PRIMASK
 800208a:	2201      	movs	r2, #1
 800208c:	f382 8810 	msr	PRIMASK, r2
 8002090:	6821      	ldr	r1, [r4, #0]
 8002092:	4d0c      	ldr	r5, [pc, #48]	; (80020c4 <UART_WaitOnFlagUntilTimeout+0xcc>)
 8002094:	680b      	ldr	r3, [r1, #0]
 8002096:	402b      	ands	r3, r5
 8002098:	600b      	str	r3, [r1, #0]
 800209a:	f380 8810 	msr	PRIMASK, r0
 800209e:	f3ef 8010 	mrs	r0, PRIMASK
 80020a2:	f382 8810 	msr	PRIMASK, r2
 80020a6:	6821      	ldr	r1, [r4, #0]
 80020a8:	688b      	ldr	r3, [r1, #8]
 80020aa:	4393      	bics	r3, r2
 80020ac:	608b      	str	r3, [r1, #8]
 80020ae:	f380 8810 	msr	PRIMASK, r0
 80020b2:	0022      	movs	r2, r4
 80020b4:	2320      	movs	r3, #32
 80020b6:	3208      	adds	r2, #8
 80020b8:	67d3      	str	r3, [r2, #124]	; 0x7c
 80020ba:	3280      	adds	r2, #128	; 0x80
 80020bc:	6013      	str	r3, [r2, #0]
 80020be:	6053      	str	r3, [r2, #4]
 80020c0:	e7d3      	b.n	800206a <UART_WaitOnFlagUntilTimeout+0x72>
 80020c2:	46c0      	nop			; (mov r8, r8)
 80020c4:	fffffe5f 	.word	0xfffffe5f

080020c8 <UART_CheckIdleState>:
 80020c8:	0003      	movs	r3, r0
 80020ca:	b573      	push	{r0, r1, r4, r5, r6, lr}
 80020cc:	2600      	movs	r6, #0
 80020ce:	0004      	movs	r4, r0
 80020d0:	338c      	adds	r3, #140	; 0x8c
 80020d2:	601e      	str	r6, [r3, #0]
 80020d4:	f7fe fb08 	bl	80006e8 <HAL_GetTick>
 80020d8:	6823      	ldr	r3, [r4, #0]
 80020da:	0005      	movs	r5, r0
 80020dc:	681b      	ldr	r3, [r3, #0]
 80020de:	071b      	lsls	r3, r3, #28
 80020e0:	d419      	bmi.n	8002116 <UART_CheckIdleState+0x4e>
 80020e2:	6823      	ldr	r3, [r4, #0]
 80020e4:	681b      	ldr	r3, [r3, #0]
 80020e6:	075b      	lsls	r3, r3, #29
 80020e8:	d50a      	bpl.n	8002100 <UART_CheckIdleState+0x38>
 80020ea:	2180      	movs	r1, #128	; 0x80
 80020ec:	4b10      	ldr	r3, [pc, #64]	; (8002130 <UART_CheckIdleState+0x68>)
 80020ee:	2200      	movs	r2, #0
 80020f0:	9300      	str	r3, [sp, #0]
 80020f2:	0020      	movs	r0, r4
 80020f4:	002b      	movs	r3, r5
 80020f6:	03c9      	lsls	r1, r1, #15
 80020f8:	f7ff ff7e 	bl	8001ff8 <UART_WaitOnFlagUntilTimeout>
 80020fc:	2800      	cmp	r0, #0
 80020fe:	d115      	bne.n	800212c <UART_CheckIdleState+0x64>
 8002100:	0022      	movs	r2, r4
 8002102:	2320      	movs	r3, #32
 8002104:	2000      	movs	r0, #0
 8002106:	3208      	adds	r2, #8
 8002108:	67d3      	str	r3, [r2, #124]	; 0x7c
 800210a:	3280      	adds	r2, #128	; 0x80
 800210c:	6013      	str	r3, [r2, #0]
 800210e:	66e0      	str	r0, [r4, #108]	; 0x6c
 8002110:	3480      	adds	r4, #128	; 0x80
 8002112:	7020      	strb	r0, [r4, #0]
 8002114:	e00b      	b.n	800212e <UART_CheckIdleState+0x66>
 8002116:	2180      	movs	r1, #128	; 0x80
 8002118:	4b05      	ldr	r3, [pc, #20]	; (8002130 <UART_CheckIdleState+0x68>)
 800211a:	0032      	movs	r2, r6
 800211c:	9300      	str	r3, [sp, #0]
 800211e:	0389      	lsls	r1, r1, #14
 8002120:	0003      	movs	r3, r0
 8002122:	0020      	movs	r0, r4
 8002124:	f7ff ff68 	bl	8001ff8 <UART_WaitOnFlagUntilTimeout>
 8002128:	2800      	cmp	r0, #0
 800212a:	d0da      	beq.n	80020e2 <UART_CheckIdleState+0x1a>
 800212c:	2003      	movs	r0, #3
 800212e:	bd76      	pop	{r1, r2, r4, r5, r6, pc}
 8002130:	01ffffff 	.word	0x01ffffff

08002134 <HAL_UART_Init>:
 8002134:	b570      	push	{r4, r5, r6, lr}
 8002136:	1e04      	subs	r4, r0, #0
 8002138:	d101      	bne.n	800213e <HAL_UART_Init+0xa>
 800213a:	2001      	movs	r0, #1
 800213c:	bd70      	pop	{r4, r5, r6, pc}
 800213e:	0005      	movs	r5, r0
 8002140:	3508      	adds	r5, #8
 8002142:	6feb      	ldr	r3, [r5, #124]	; 0x7c
 8002144:	2b00      	cmp	r3, #0
 8002146:	d104      	bne.n	8002152 <HAL_UART_Init+0x1e>
 8002148:	0002      	movs	r2, r0
 800214a:	3280      	adds	r2, #128	; 0x80
 800214c:	7013      	strb	r3, [r2, #0]
 800214e:	f001 f8cb 	bl	80032e8 <HAL_UART_MspInit>
 8002152:	2324      	movs	r3, #36	; 0x24
 8002154:	2101      	movs	r1, #1
 8002156:	6822      	ldr	r2, [r4, #0]
 8002158:	67eb      	str	r3, [r5, #124]	; 0x7c
 800215a:	6813      	ldr	r3, [r2, #0]
 800215c:	0020      	movs	r0, r4
 800215e:	438b      	bics	r3, r1
 8002160:	6013      	str	r3, [r2, #0]
 8002162:	f7ff fdcb 	bl	8001cfc <UART_SetConfig>
 8002166:	2801      	cmp	r0, #1
 8002168:	d0e7      	beq.n	800213a <HAL_UART_Init+0x6>
 800216a:	6aa3      	ldr	r3, [r4, #40]	; 0x28
 800216c:	2b00      	cmp	r3, #0
 800216e:	d002      	beq.n	8002176 <HAL_UART_Init+0x42>
 8002170:	0020      	movs	r0, r4
 8002172:	f7ff fed9 	bl	8001f28 <UART_AdvFeatureConfig>
 8002176:	6823      	ldr	r3, [r4, #0]
 8002178:	4907      	ldr	r1, [pc, #28]	; (8002198 <HAL_UART_Init+0x64>)
 800217a:	685a      	ldr	r2, [r3, #4]
 800217c:	0020      	movs	r0, r4
 800217e:	400a      	ands	r2, r1
 8002180:	212a      	movs	r1, #42	; 0x2a
 8002182:	605a      	str	r2, [r3, #4]
 8002184:	689a      	ldr	r2, [r3, #8]
 8002186:	438a      	bics	r2, r1
 8002188:	609a      	str	r2, [r3, #8]
 800218a:	2201      	movs	r2, #1
 800218c:	6819      	ldr	r1, [r3, #0]
 800218e:	430a      	orrs	r2, r1
 8002190:	601a      	str	r2, [r3, #0]
 8002192:	f7ff ff99 	bl	80020c8 <UART_CheckIdleState>
 8002196:	e7d1      	b.n	800213c <HAL_UART_Init+0x8>
 8002198:	ffffb7ff 	.word	0xffffb7ff

0800219c <UARTEx_SetNbDataToProcess>:
 800219c:	b5f8      	push	{r3, r4, r5, r6, r7, lr}
 800219e:	6e43      	ldr	r3, [r0, #100]	; 0x64
 80021a0:	0004      	movs	r4, r0
 80021a2:	2b00      	cmp	r3, #0
 80021a4:	d102      	bne.n	80021ac <UARTEx_SetNbDataToProcess+0x10>
 80021a6:	4b0d      	ldr	r3, [pc, #52]	; (80021dc <UARTEx_SetNbDataToProcess+0x40>)
 80021a8:	6683      	str	r3, [r0, #104]	; 0x68
 80021aa:	bdf8      	pop	{r3, r4, r5, r6, r7, pc}
 80021ac:	6803      	ldr	r3, [r0, #0]
 80021ae:	4e0c      	ldr	r6, [pc, #48]	; (80021e0 <UARTEx_SetNbDataToProcess+0x44>)
 80021b0:	689f      	ldr	r7, [r3, #8]
 80021b2:	689b      	ldr	r3, [r3, #8]
 80021b4:	4d0b      	ldr	r5, [pc, #44]	; (80021e4 <UARTEx_SetNbDataToProcess+0x48>)
 80021b6:	0f5b      	lsrs	r3, r3, #29
 80021b8:	5cf0      	ldrb	r0, [r6, r3]
 80021ba:	5ce9      	ldrb	r1, [r5, r3]
 80021bc:	00c0      	lsls	r0, r0, #3
 80021be:	f7fe f849 	bl	8000254 <__divsi3>
 80021c2:	0023      	movs	r3, r4
 80021c4:	336a      	adds	r3, #106	; 0x6a
 80021c6:	8018      	strh	r0, [r3, #0]
 80021c8:	013b      	lsls	r3, r7, #4
 80021ca:	0f5b      	lsrs	r3, r3, #29
 80021cc:	5cf0      	ldrb	r0, [r6, r3]
 80021ce:	5ce9      	ldrb	r1, [r5, r3]
 80021d0:	00c0      	lsls	r0, r0, #3
 80021d2:	f7fe f83f 	bl	8000254 <__divsi3>
 80021d6:	3468      	adds	r4, #104	; 0x68
 80021d8:	8020      	strh	r0, [r4, #0]
 80021da:	e7e6      	b.n	80021aa <UARTEx_SetNbDataToProcess+0xe>
 80021dc:	00010001 	.word	0x00010001
 80021e0:	080034c8 	.word	0x080034c8
 80021e4:	080034c0 	.word	0x080034c0

080021e8 <HAL_UARTEx_DisableFifoMode>:
 80021e8:	b570      	push	{r4, r5, r6, lr}
 80021ea:	0004      	movs	r4, r0
 80021ec:	3480      	adds	r4, #128	; 0x80
 80021ee:	7822      	ldrb	r2, [r4, #0]
 80021f0:	0003      	movs	r3, r0
 80021f2:	2002      	movs	r0, #2
 80021f4:	2a01      	cmp	r2, #1
 80021f6:	d011      	beq.n	800221c <HAL_UARTEx_DisableFifoMode+0x34>
 80021f8:	001d      	movs	r5, r3
 80021fa:	2224      	movs	r2, #36	; 0x24
 80021fc:	2601      	movs	r6, #1
 80021fe:	3508      	adds	r5, #8
 8002200:	67ea      	str	r2, [r5, #124]	; 0x7c
 8002202:	681a      	ldr	r2, [r3, #0]
 8002204:	6811      	ldr	r1, [r2, #0]
 8002206:	6810      	ldr	r0, [r2, #0]
 8002208:	43b0      	bics	r0, r6
 800220a:	6010      	str	r0, [r2, #0]
 800220c:	4804      	ldr	r0, [pc, #16]	; (8002220 <HAL_UARTEx_DisableFifoMode+0x38>)
 800220e:	4001      	ands	r1, r0
 8002210:	2000      	movs	r0, #0
 8002212:	6658      	str	r0, [r3, #100]	; 0x64
 8002214:	2320      	movs	r3, #32
 8002216:	6011      	str	r1, [r2, #0]
 8002218:	67eb      	str	r3, [r5, #124]	; 0x7c
 800221a:	7020      	strb	r0, [r4, #0]
 800221c:	bd70      	pop	{r4, r5, r6, pc}
 800221e:	46c0      	nop			; (mov r8, r8)
 8002220:	dfffffff 	.word	0xdfffffff

08002224 <HAL_UARTEx_SetTxFifoThreshold>:
 8002224:	b5f8      	push	{r3, r4, r5, r6, r7, lr}
 8002226:	0005      	movs	r5, r0
 8002228:	3580      	adds	r5, #128	; 0x80
 800222a:	782b      	ldrb	r3, [r5, #0]
 800222c:	0004      	movs	r4, r0
 800222e:	000a      	movs	r2, r1
 8002230:	2002      	movs	r0, #2
 8002232:	2b01      	cmp	r3, #1
 8002234:	d018      	beq.n	8002268 <HAL_UARTEx_SetTxFifoThreshold+0x44>
 8002236:	0026      	movs	r6, r4
 8002238:	2324      	movs	r3, #36	; 0x24
 800223a:	3801      	subs	r0, #1
 800223c:	7028      	strb	r0, [r5, #0]
 800223e:	3608      	adds	r6, #8
 8002240:	67f3      	str	r3, [r6, #124]	; 0x7c
 8002242:	6823      	ldr	r3, [r4, #0]
 8002244:	681f      	ldr	r7, [r3, #0]
 8002246:	6819      	ldr	r1, [r3, #0]
 8002248:	4381      	bics	r1, r0
 800224a:	6019      	str	r1, [r3, #0]
 800224c:	6899      	ldr	r1, [r3, #8]
 800224e:	0020      	movs	r0, r4
 8002250:	00c9      	lsls	r1, r1, #3
 8002252:	08c9      	lsrs	r1, r1, #3
 8002254:	4311      	orrs	r1, r2
 8002256:	6099      	str	r1, [r3, #8]
 8002258:	f7ff ffa0 	bl	800219c <UARTEx_SetNbDataToProcess>
 800225c:	6823      	ldr	r3, [r4, #0]
 800225e:	2000      	movs	r0, #0
 8002260:	601f      	str	r7, [r3, #0]
 8002262:	2320      	movs	r3, #32
 8002264:	67f3      	str	r3, [r6, #124]	; 0x7c
 8002266:	7028      	strb	r0, [r5, #0]
 8002268:	bdf8      	pop	{r3, r4, r5, r6, r7, pc}
	...

0800226c <HAL_UARTEx_SetRxFifoThreshold>:
 800226c:	b5f8      	push	{r3, r4, r5, r6, r7, lr}
 800226e:	0005      	movs	r5, r0
 8002270:	3580      	adds	r5, #128	; 0x80
 8002272:	782b      	ldrb	r3, [r5, #0]
 8002274:	0004      	movs	r4, r0
 8002276:	000a      	movs	r2, r1
 8002278:	2002      	movs	r0, #2
 800227a:	2b01      	cmp	r3, #1
 800227c:	d018      	beq.n	80022b0 <HAL_UARTEx_SetRxFifoThreshold+0x44>
 800227e:	0026      	movs	r6, r4
 8002280:	2324      	movs	r3, #36	; 0x24
 8002282:	3801      	subs	r0, #1
 8002284:	7028      	strb	r0, [r5, #0]
 8002286:	3608      	adds	r6, #8
 8002288:	67f3      	str	r3, [r6, #124]	; 0x7c
 800228a:	6823      	ldr	r3, [r4, #0]
 800228c:	681f      	ldr	r7, [r3, #0]
 800228e:	6819      	ldr	r1, [r3, #0]
 8002290:	4381      	bics	r1, r0
 8002292:	6019      	str	r1, [r3, #0]
 8002294:	6899      	ldr	r1, [r3, #8]
 8002296:	4807      	ldr	r0, [pc, #28]	; (80022b4 <HAL_UARTEx_SetRxFifoThreshold+0x48>)
 8002298:	4001      	ands	r1, r0
 800229a:	4311      	orrs	r1, r2
 800229c:	0020      	movs	r0, r4
 800229e:	6099      	str	r1, [r3, #8]
 80022a0:	f7ff ff7c 	bl	800219c <UARTEx_SetNbDataToProcess>
 80022a4:	6823      	ldr	r3, [r4, #0]
 80022a6:	2000      	movs	r0, #0
 80022a8:	601f      	str	r7, [r3, #0]
 80022aa:	2320      	movs	r3, #32
 80022ac:	67f3      	str	r3, [r6, #124]	; 0x7c
 80022ae:	7028      	strb	r0, [r5, #0]
 80022b0:	bdf8      	pop	{r3, r4, r5, r6, r7, pc}
 80022b2:	46c0      	nop			; (mov r8, r8)
 80022b4:	f1ffffff 	.word	0xf1ffffff

080022b8 <_LEDsegmentOn.part.0>:
 80022b8:	b510      	push	{r4, lr}
 80022ba:	2905      	cmp	r1, #5
 80022bc:	d105      	bne.n	80022ca <_LEDsegmentOn.part.0+0x12>
 80022be:	2200      	movs	r2, #0
 80022c0:	8c01      	ldrh	r1, [r0, #32]
 80022c2:	6a40      	ldr	r0, [r0, #36]	; 0x24
 80022c4:	f7fe fd9a 	bl	8000dfc <HAL_GPIO_WritePin>
 80022c8:	bd10      	pop	{r4, pc}
 80022ca:	2906      	cmp	r1, #6
 80022cc:	d103      	bne.n	80022d6 <_LEDsegmentOn.part.0+0x1e>
 80022ce:	8d01      	ldrh	r1, [r0, #40]	; 0x28
 80022d0:	2200      	movs	r2, #0
 80022d2:	6ac0      	ldr	r0, [r0, #44]	; 0x2c
 80022d4:	e7f6      	b.n	80022c4 <_LEDsegmentOn.part.0+0xc>
 80022d6:	2907      	cmp	r1, #7
 80022d8:	d1f6      	bne.n	80022c8 <_LEDsegmentOn.part.0+0x10>
 80022da:	8e01      	ldrh	r1, [r0, #48]	; 0x30
 80022dc:	2200      	movs	r2, #0
 80022de:	6b40      	ldr	r0, [r0, #52]	; 0x34
 80022e0:	e7f0      	b.n	80022c4 <_LEDsegmentOn.part.0+0xc>

080022e2 <_LEDsegmentOn>:
 80022e2:	b510      	push	{r4, lr}
 80022e4:	2901      	cmp	r1, #1
 80022e6:	d105      	bne.n	80022f4 <_LEDsegmentOn+0x12>
 80022e8:	2200      	movs	r2, #0
 80022ea:	8801      	ldrh	r1, [r0, #0]
 80022ec:	6840      	ldr	r0, [r0, #4]
 80022ee:	f7fe fd85 	bl	8000dfc <HAL_GPIO_WritePin>
 80022f2:	bd10      	pop	{r4, pc}
 80022f4:	2902      	cmp	r1, #2
 80022f6:	d103      	bne.n	8002300 <_LEDsegmentOn+0x1e>
 80022f8:	8901      	ldrh	r1, [r0, #8]
 80022fa:	2200      	movs	r2, #0
 80022fc:	68c0      	ldr	r0, [r0, #12]
 80022fe:	e7f6      	b.n	80022ee <_LEDsegmentOn+0xc>
 8002300:	2903      	cmp	r1, #3
 8002302:	d103      	bne.n	800230c <_LEDsegmentOn+0x2a>
 8002304:	8a01      	ldrh	r1, [r0, #16]
 8002306:	2200      	movs	r2, #0
 8002308:	6940      	ldr	r0, [r0, #20]
 800230a:	e7f0      	b.n	80022ee <_LEDsegmentOn+0xc>
 800230c:	8b01      	ldrh	r1, [r0, #24]
 800230e:	2200      	movs	r2, #0
 8002310:	69c0      	ldr	r0, [r0, #28]
 8002312:	e7ec      	b.n	80022ee <_LEDsegmentOn+0xc>

08002314 <LEDmultiplexing>:
 8002314:	b5f7      	push	{r0, r1, r2, r4, r5, r6, r7, lr}
 8002316:	0004      	movs	r4, r0
 8002318:	0026      	movs	r6, r4
 800231a:	1c87      	adds	r7, r0, #2
 800231c:	2200      	movs	r2, #0
 800231e:	8ff9      	ldrh	r1, [r7, #62]	; 0x3e
 8002320:	6c40      	ldr	r0, [r0, #68]	; 0x44
 8002322:	3648      	adds	r6, #72	; 0x48
 8002324:	f7fe fd6a 	bl	8000dfc <HAL_GPIO_WritePin>
 8002328:	2200      	movs	r2, #0
 800232a:	8831      	ldrh	r1, [r6, #0]
 800232c:	6ce0      	ldr	r0, [r4, #76]	; 0x4c
 800232e:	f7fe fd65 	bl	8000dfc <HAL_GPIO_WritePin>
 8002332:	0023      	movs	r3, r4
 8002334:	3350      	adds	r3, #80	; 0x50
 8002336:	9300      	str	r3, [sp, #0]
 8002338:	8819      	ldrh	r1, [r3, #0]
 800233a:	2200      	movs	r2, #0
 800233c:	6d60      	ldr	r0, [r4, #84]	; 0x54
 800233e:	f7fe fd5d 	bl	8000dfc <HAL_GPIO_WritePin>
 8002342:	0023      	movs	r3, r4
 8002344:	0025      	movs	r5, r4
 8002346:	3358      	adds	r3, #88	; 0x58
 8002348:	9301      	str	r3, [sp, #4]
 800234a:	8819      	ldrh	r1, [r3, #0]
 800234c:	2200      	movs	r2, #0
 800234e:	6de0      	ldr	r0, [r4, #92]	; 0x5c
 8002350:	f7fe fd54 	bl	8000dfc <HAL_GPIO_WritePin>
 8002354:	2201      	movs	r2, #1
 8002356:	8821      	ldrh	r1, [r4, #0]
 8002358:	6860      	ldr	r0, [r4, #4]
 800235a:	f7fe fd4f 	bl	8000dfc <HAL_GPIO_WritePin>
 800235e:	2201      	movs	r2, #1
 8002360:	8921      	ldrh	r1, [r4, #8]
 8002362:	68e0      	ldr	r0, [r4, #12]
 8002364:	f7fe fd4a 	bl	8000dfc <HAL_GPIO_WritePin>
 8002368:	2201      	movs	r2, #1
 800236a:	8a21      	ldrh	r1, [r4, #16]
 800236c:	6960      	ldr	r0, [r4, #20]
 800236e:	f7fe fd45 	bl	8000dfc <HAL_GPIO_WritePin>
 8002372:	2201      	movs	r2, #1
 8002374:	8b21      	ldrh	r1, [r4, #24]
 8002376:	69e0      	ldr	r0, [r4, #28]
 8002378:	f7fe fd40 	bl	8000dfc <HAL_GPIO_WritePin>
 800237c:	2201      	movs	r2, #1
 800237e:	8c21      	ldrh	r1, [r4, #32]
 8002380:	6a60      	ldr	r0, [r4, #36]	; 0x24
 8002382:	f7fe fd3b 	bl	8000dfc <HAL_GPIO_WritePin>
 8002386:	2201      	movs	r2, #1
 8002388:	8d21      	ldrh	r1, [r4, #40]	; 0x28
 800238a:	6ae0      	ldr	r0, [r4, #44]	; 0x2c
 800238c:	f7fe fd36 	bl	8000dfc <HAL_GPIO_WritePin>
 8002390:	2201      	movs	r2, #1
 8002392:	8e21      	ldrh	r1, [r4, #48]	; 0x30
 8002394:	6b60      	ldr	r0, [r4, #52]	; 0x34
 8002396:	f7fe fd31 	bl	8000dfc <HAL_GPIO_WritePin>
 800239a:	3565      	adds	r5, #101	; 0x65
 800239c:	2201      	movs	r2, #1
 800239e:	8f21      	ldrh	r1, [r4, #56]	; 0x38
 80023a0:	6be0      	ldr	r0, [r4, #60]	; 0x3c
 80023a2:	f7fe fd2b 	bl	8000dfc <HAL_GPIO_WritePin>
 80023a6:	782a      	ldrb	r2, [r5, #0]
 80023a8:	2a00      	cmp	r2, #0
 80023aa:	d118      	bne.n	80023de <LEDmultiplexing+0xca>
 80023ac:	8ff9      	ldrh	r1, [r7, #62]	; 0x3e
 80023ae:	6c60      	ldr	r0, [r4, #68]	; 0x44
 80023b0:	3201      	adds	r2, #1
 80023b2:	f7fe fd23 	bl	8000dfc <HAL_GPIO_WritePin>
 80023b6:	782b      	ldrb	r3, [r5, #0]
 80023b8:	18e3      	adds	r3, r4, r3
 80023ba:	3360      	adds	r3, #96	; 0x60
 80023bc:	7818      	ldrb	r0, [r3, #0]
 80023be:	0003      	movs	r3, r0
 80023c0:	3b30      	subs	r3, #48	; 0x30
 80023c2:	2b09      	cmp	r3, #9
 80023c4:	d900      	bls.n	80023c8 <LEDmultiplexing+0xb4>
 80023c6:	e0ce      	b.n	8002566 <LEDmultiplexing+0x252>
 80023c8:	3831      	subs	r0, #49	; 0x31
 80023ca:	2808      	cmp	r0, #8
 80023cc:	d900      	bls.n	80023d0 <LEDmultiplexing+0xbc>
 80023ce:	e0c0      	b.n	8002552 <LEDmultiplexing+0x23e>
 80023d0:	f7fd fea2 	bl	8000118 <__gnu_thumb1_case_uqi>
 80023d4:	7a691882 	.word	0x7a691882
 80023d8:	a8a39188 	.word	0xa8a39188
 80023dc:	ae          	.byte	0xae
 80023dd:	00          	.byte	0x00
 80023de:	2a01      	cmp	r2, #1
 80023e0:	d102      	bne.n	80023e8 <LEDmultiplexing+0xd4>
 80023e2:	8831      	ldrh	r1, [r6, #0]
 80023e4:	6ce0      	ldr	r0, [r4, #76]	; 0x4c
 80023e6:	e7e4      	b.n	80023b2 <LEDmultiplexing+0x9e>
 80023e8:	2a02      	cmp	r2, #2
 80023ea:	d104      	bne.n	80023f6 <LEDmultiplexing+0xe2>
 80023ec:	9b00      	ldr	r3, [sp, #0]
 80023ee:	6d60      	ldr	r0, [r4, #84]	; 0x54
 80023f0:	8819      	ldrh	r1, [r3, #0]
 80023f2:	3a01      	subs	r2, #1
 80023f4:	e7dd      	b.n	80023b2 <LEDmultiplexing+0x9e>
 80023f6:	2a03      	cmp	r2, #3
 80023f8:	d1dd      	bne.n	80023b6 <LEDmultiplexing+0xa2>
 80023fa:	9b01      	ldr	r3, [sp, #4]
 80023fc:	6de0      	ldr	r0, [r4, #92]	; 0x5c
 80023fe:	8819      	ldrh	r1, [r3, #0]
 8002400:	3a02      	subs	r2, #2
 8002402:	e7d6      	b.n	80023b2 <LEDmultiplexing+0x9e>
 8002404:	2101      	movs	r1, #1
 8002406:	0020      	movs	r0, r4
 8002408:	f7ff ff6b 	bl	80022e2 <_LEDsegmentOn>
 800240c:	2102      	movs	r1, #2
 800240e:	0020      	movs	r0, r4
 8002410:	f7ff ff67 	bl	80022e2 <_LEDsegmentOn>
 8002414:	2107      	movs	r1, #7
 8002416:	0020      	movs	r0, r4
 8002418:	f7ff ff4e 	bl	80022b8 <_LEDsegmentOn.part.0>
 800241c:	2105      	movs	r1, #5
 800241e:	0020      	movs	r0, r4
 8002420:	f7ff ff4a 	bl	80022b8 <_LEDsegmentOn.part.0>
 8002424:	2104      	movs	r1, #4
 8002426:	0020      	movs	r0, r4
 8002428:	f7ff ff5b 	bl	80022e2 <_LEDsegmentOn>
 800242c:	0023      	movs	r3, r4
 800242e:	3364      	adds	r3, #100	; 0x64
 8002430:	781a      	ldrb	r2, [r3, #0]
 8002432:	782b      	ldrb	r3, [r5, #0]
 8002434:	429a      	cmp	r2, r3
 8002436:	d104      	bne.n	8002442 <LEDmultiplexing+0x12e>
 8002438:	2200      	movs	r2, #0
 800243a:	8f21      	ldrh	r1, [r4, #56]	; 0x38
 800243c:	6be0      	ldr	r0, [r4, #60]	; 0x3c
 800243e:	f7fe fcdd 	bl	8000dfc <HAL_GPIO_WritePin>
 8002442:	782b      	ldrb	r3, [r5, #0]
 8002444:	3301      	adds	r3, #1
 8002446:	b2db      	uxtb	r3, r3
 8002448:	2b03      	cmp	r3, #3
 800244a:	d900      	bls.n	800244e <LEDmultiplexing+0x13a>
 800244c:	e10d      	b.n	800266a <LEDmultiplexing+0x356>
 800244e:	702b      	strb	r3, [r5, #0]
 8002450:	0023      	movs	r3, r4
 8002452:	336a      	adds	r3, #106	; 0x6a
 8002454:	8818      	ldrh	r0, [r3, #0]
 8002456:	2132      	movs	r1, #50	; 0x32
 8002458:	3001      	adds	r0, #1
 800245a:	b280      	uxth	r0, r0
 800245c:	8018      	strh	r0, [r3, #0]
 800245e:	f7fd fef5 	bl	800024c <__aeabi_uidivmod>
 8002462:	b289      	uxth	r1, r1
 8002464:	2900      	cmp	r1, #0
 8002466:	d000      	beq.n	800246a <LEDmultiplexing+0x156>
 8002468:	e10a      	b.n	8002680 <LEDmultiplexing+0x36c>
 800246a:	0023      	movs	r3, r4
 800246c:	3367      	adds	r3, #103	; 0x67
 800246e:	781a      	ldrb	r2, [r3, #0]
 8002470:	2a00      	cmp	r2, #0
 8002472:	d100      	bne.n	8002476 <LEDmultiplexing+0x162>
 8002474:	e104      	b.n	8002680 <LEDmultiplexing+0x36c>
 8002476:	0021      	movs	r1, r4
 8002478:	3166      	adds	r1, #102	; 0x66
 800247a:	780b      	ldrb	r3, [r1, #0]
 800247c:	2a02      	cmp	r2, #2
 800247e:	d000      	beq.n	8002482 <LEDmultiplexing+0x16e>
 8002480:	e0ff      	b.n	8002682 <LEDmultiplexing+0x36e>
 8002482:	0022      	movs	r2, r4
 8002484:	0020      	movs	r0, r4
 8002486:	3262      	adds	r2, #98	; 0x62
 8002488:	7815      	ldrb	r5, [r2, #0]
 800248a:	3063      	adds	r0, #99	; 0x63
 800248c:	7005      	strb	r5, [r0, #0]
 800248e:	3802      	subs	r0, #2
 8002490:	7805      	ldrb	r5, [r0, #0]
 8002492:	3a02      	subs	r2, #2
 8002494:	7095      	strb	r5, [r2, #2]
 8002496:	7815      	ldrb	r5, [r2, #0]
 8002498:	7005      	strb	r5, [r0, #0]
 800249a:	2b01      	cmp	r3, #1
 800249c:	d900      	bls.n	80024a0 <LEDmultiplexing+0x18c>
 800249e:	e0e6      	b.n	800266e <LEDmultiplexing+0x35a>
 80024a0:	18e4      	adds	r4, r4, r3
 80024a2:	3468      	adds	r4, #104	; 0x68
 80024a4:	e0e5      	b.n	8002672 <LEDmultiplexing+0x35e>
 80024a6:	2101      	movs	r1, #1
 80024a8:	0020      	movs	r0, r4
 80024aa:	f7ff ff1a 	bl	80022e2 <_LEDsegmentOn>
 80024ae:	2102      	movs	r1, #2
 80024b0:	0020      	movs	r0, r4
 80024b2:	f7ff ff16 	bl	80022e2 <_LEDsegmentOn>
 80024b6:	2107      	movs	r1, #7
 80024b8:	0020      	movs	r0, r4
 80024ba:	f7ff fefd 	bl	80022b8 <_LEDsegmentOn.part.0>
 80024be:	2103      	movs	r1, #3
 80024c0:	0020      	movs	r0, r4
 80024c2:	f7ff ff0e 	bl	80022e2 <_LEDsegmentOn>
 80024c6:	e7ad      	b.n	8002424 <LEDmultiplexing+0x110>
 80024c8:	2106      	movs	r1, #6
 80024ca:	0020      	movs	r0, r4
 80024cc:	f7ff fef4 	bl	80022b8 <_LEDsegmentOn.part.0>
 80024d0:	2107      	movs	r1, #7
 80024d2:	0020      	movs	r0, r4
 80024d4:	f7ff fef0 	bl	80022b8 <_LEDsegmentOn.part.0>
 80024d8:	2102      	movs	r1, #2
 80024da:	0020      	movs	r0, r4
 80024dc:	f7ff ff01 	bl	80022e2 <_LEDsegmentOn>
 80024e0:	2103      	movs	r1, #3
 80024e2:	e7a0      	b.n	8002426 <LEDmultiplexing+0x112>
 80024e4:	0020      	movs	r0, r4
 80024e6:	2101      	movs	r1, #1
 80024e8:	f7ff fefb 	bl	80022e2 <_LEDsegmentOn>
 80024ec:	2106      	movs	r1, #6
 80024ee:	0020      	movs	r0, r4
 80024f0:	f7ff fee2 	bl	80022b8 <_LEDsegmentOn.part.0>
 80024f4:	e7df      	b.n	80024b6 <LEDmultiplexing+0x1a2>
 80024f6:	2101      	movs	r1, #1
 80024f8:	0020      	movs	r0, r4
 80024fa:	f7ff fef2 	bl	80022e2 <_LEDsegmentOn>
 80024fe:	2103      	movs	r1, #3
 8002500:	0020      	movs	r0, r4
 8002502:	f7ff feee 	bl	80022e2 <_LEDsegmentOn>
 8002506:	2104      	movs	r1, #4
 8002508:	0020      	movs	r0, r4
 800250a:	f7ff feea 	bl	80022e2 <_LEDsegmentOn>
 800250e:	2105      	movs	r1, #5
 8002510:	0020      	movs	r0, r4
 8002512:	f7ff fed1 	bl	80022b8 <_LEDsegmentOn.part.0>
 8002516:	2106      	movs	r1, #6
 8002518:	e08d      	b.n	8002636 <LEDmultiplexing+0x322>
 800251a:	2101      	movs	r1, #1
 800251c:	0020      	movs	r0, r4
 800251e:	f7ff fee0 	bl	80022e2 <_LEDsegmentOn>
 8002522:	e7d9      	b.n	80024d8 <LEDmultiplexing+0x1c4>
 8002524:	2101      	movs	r1, #1
 8002526:	0020      	movs	r0, r4
 8002528:	f7ff fedb 	bl	80022e2 <_LEDsegmentOn>
 800252c:	2102      	movs	r1, #2
 800252e:	e7e3      	b.n	80024f8 <LEDmultiplexing+0x1e4>
 8002530:	2101      	movs	r1, #1
 8002532:	0020      	movs	r0, r4
 8002534:	f7ff fed5 	bl	80022e2 <_LEDsegmentOn>
 8002538:	2102      	movs	r1, #2
 800253a:	0020      	movs	r0, r4
 800253c:	f7ff fed1 	bl	80022e2 <_LEDsegmentOn>
 8002540:	2103      	movs	r1, #3
 8002542:	0020      	movs	r0, r4
 8002544:	f7ff fecd 	bl	80022e2 <_LEDsegmentOn>
 8002548:	2104      	movs	r1, #4
 800254a:	0020      	movs	r0, r4
 800254c:	f7ff fec9 	bl	80022e2 <_LEDsegmentOn>
 8002550:	e7e1      	b.n	8002516 <LEDmultiplexing+0x202>
 8002552:	2101      	movs	r1, #1
 8002554:	0020      	movs	r0, r4
 8002556:	f7ff fec4 	bl	80022e2 <_LEDsegmentOn>
 800255a:	2102      	movs	r1, #2
 800255c:	0020      	movs	r0, r4
 800255e:	f7ff fec0 	bl	80022e2 <_LEDsegmentOn>
 8002562:	2103      	movs	r1, #3
 8002564:	e04a      	b.n	80025fc <LEDmultiplexing+0x2e8>
 8002566:	282d      	cmp	r0, #45	; 0x2d
 8002568:	d068      	beq.n	800263c <LEDmultiplexing+0x328>
 800256a:	3841      	subs	r0, #65	; 0x41
 800256c:	b2c3      	uxtb	r3, r0
 800256e:	2b33      	cmp	r3, #51	; 0x33
 8002570:	d900      	bls.n	8002574 <LEDmultiplexing+0x260>
 8002572:	e75b      	b.n	800242c <LEDmultiplexing+0x118>
 8002574:	2833      	cmp	r0, #51	; 0x33
 8002576:	d900      	bls.n	800257a <LEDmultiplexing+0x266>
 8002578:	e758      	b.n	800242c <LEDmultiplexing+0x118>
 800257a:	f7fd fdd7 	bl	800012c <__gnu_thumb1_case_shi>
 800257e:	0034      	.short	0x0034
 8002580:	003eff57 	.word	0x003eff57
 8002584:	0061ffea 	.word	0x0061ffea
 8002588:	ff570063 	.word	0xff570063
 800258c:	ff570038 	.word	0xff570038
 8002590:	ff570065 	.word	0xff570065
 8002594:	ff570042 	.word	0xff570042
 8002598:	ffeaff57 	.word	0xffeaff57
 800259c:	ff57006a 	.word	0xff57006a
 80025a0:	ffb3ff57 	.word	0xffb3ff57
 80025a4:	ffeeff57 	.word	0xffeeff57
 80025a8:	ff57ff57 	.word	0xff57ff57
 80025ac:	ff57ff57 	.word	0xff57ff57
 80025b0:	ff57ff57 	.word	0xff57ff57
 80025b4:	ff57ff57 	.word	0xff57ff57
 80025b8:	ff530070 	.word	0xff530070
 80025bc:	ff57ff57 	.word	0xff57ff57
 80025c0:	0057ffc0 	.word	0x0057ffc0
 80025c4:	ff57004f 	.word	0xff57004f
 80025c8:	ff57ff57 	.word	0xff57ff57
 80025cc:	ff57003c 	.word	0xff57003c
 80025d0:	ff57ff57 	.word	0xff57ff57
 80025d4:	ff57ff57 	.word	0xff57ff57
 80025d8:	0053ff57 	.word	0x0053ff57
 80025dc:	ff57ff57 	.word	0xff57ff57
 80025e0:	ff57005b 	.word	0xff57005b
 80025e4:	ffc8      	.short	0xffc8
 80025e6:	2101      	movs	r1, #1
 80025e8:	0020      	movs	r0, r4
 80025ea:	f7ff fe7a 	bl	80022e2 <_LEDsegmentOn>
 80025ee:	2102      	movs	r1, #2
 80025f0:	0020      	movs	r0, r4
 80025f2:	f7ff fe76 	bl	80022e2 <_LEDsegmentOn>
 80025f6:	2103      	movs	r1, #3
 80025f8:	e786      	b.n	8002508 <LEDmultiplexing+0x1f4>
 80025fa:	2101      	movs	r1, #1
 80025fc:	0020      	movs	r0, r4
 80025fe:	f7ff fe70 	bl	80022e2 <_LEDsegmentOn>
 8002602:	2104      	movs	r1, #4
 8002604:	0020      	movs	r0, r4
 8002606:	f7ff fe6c 	bl	80022e2 <_LEDsegmentOn>
 800260a:	2105      	movs	r1, #5
 800260c:	0020      	movs	r0, r4
 800260e:	f7ff fe53 	bl	80022b8 <_LEDsegmentOn.part.0>
 8002612:	2106      	movs	r1, #6
 8002614:	0020      	movs	r0, r4
 8002616:	f7ff fe4f 	bl	80022b8 <_LEDsegmentOn.part.0>
 800261a:	e707      	b.n	800242c <LEDmultiplexing+0x118>
 800261c:	2102      	movs	r1, #2
 800261e:	0020      	movs	r0, r4
 8002620:	f7ff fe5f 	bl	80022e2 <_LEDsegmentOn>
 8002624:	2103      	movs	r1, #3
 8002626:	0020      	movs	r0, r4
 8002628:	f7ff fe5b 	bl	80022e2 <_LEDsegmentOn>
 800262c:	2104      	movs	r1, #4
 800262e:	0020      	movs	r0, r4
 8002630:	f7ff fe57 	bl	80022e2 <_LEDsegmentOn>
 8002634:	2105      	movs	r1, #5
 8002636:	0020      	movs	r0, r4
 8002638:	f7ff fe3e 	bl	80022b8 <_LEDsegmentOn.part.0>
 800263c:	2107      	movs	r1, #7
 800263e:	e7e9      	b.n	8002614 <LEDmultiplexing+0x300>
 8002640:	2101      	movs	r1, #1
 8002642:	e75d      	b.n	8002500 <LEDmultiplexing+0x1ec>
 8002644:	2101      	movs	r1, #1
 8002646:	e75f      	b.n	8002508 <LEDmultiplexing+0x1f4>
 8002648:	2102      	movs	r1, #2
 800264a:	0020      	movs	r0, r4
 800264c:	f7ff fe49 	bl	80022e2 <_LEDsegmentOn>
 8002650:	e735      	b.n	80024be <LEDmultiplexing+0x1aa>
 8002652:	2101      	movs	r1, #1
 8002654:	0020      	movs	r0, r4
 8002656:	f7ff fe44 	bl	80022e2 <_LEDsegmentOn>
 800265a:	2102      	movs	r1, #2
 800265c:	e754      	b.n	8002508 <LEDmultiplexing+0x1f4>
 800265e:	2101      	movs	r1, #1
 8002660:	0020      	movs	r0, r4
 8002662:	f7ff fe3e 	bl	80022e2 <_LEDsegmentOn>
 8002666:	2102      	movs	r1, #2
 8002668:	e76f      	b.n	800254a <LEDmultiplexing+0x236>
 800266a:	2300      	movs	r3, #0
 800266c:	e6ef      	b.n	800244e <LEDmultiplexing+0x13a>
 800266e:	1ae4      	subs	r4, r4, r3
 8002670:	3471      	adds	r4, #113	; 0x71
 8002672:	7820      	ldrb	r0, [r4, #0]
 8002674:	7010      	strb	r0, [r2, #0]
 8002676:	3301      	adds	r3, #1
 8002678:	b2db      	uxtb	r3, r3
 800267a:	2b05      	cmp	r3, #5
 800267c:	d814      	bhi.n	80026a8 <LEDmultiplexing+0x394>
 800267e:	700b      	strb	r3, [r1, #0]
 8002680:	bdf7      	pop	{r0, r1, r2, r4, r5, r6, r7, pc}
 8002682:	2a01      	cmp	r2, #1
 8002684:	d1f7      	bne.n	8002676 <LEDmultiplexing+0x362>
 8002686:	0022      	movs	r2, r4
 8002688:	0020      	movs	r0, r4
 800268a:	3261      	adds	r2, #97	; 0x61
 800268c:	7815      	ldrb	r5, [r2, #0]
 800268e:	3060      	adds	r0, #96	; 0x60
 8002690:	7005      	strb	r5, [r0, #0]
 8002692:	7885      	ldrb	r5, [r0, #2]
 8002694:	18e4      	adds	r4, r4, r3
 8002696:	7015      	strb	r5, [r2, #0]
 8002698:	7895      	ldrb	r5, [r2, #2]
 800269a:	3202      	adds	r2, #2
 800269c:	7085      	strb	r5, [r0, #2]
 800269e:	2b01      	cmp	r3, #1
 80026a0:	d800      	bhi.n	80026a4 <LEDmultiplexing+0x390>
 80026a2:	e6fe      	b.n	80024a2 <LEDmultiplexing+0x18e>
 80026a4:	346a      	adds	r4, #106	; 0x6a
 80026a6:	e7e4      	b.n	8002672 <LEDmultiplexing+0x35e>
 80026a8:	2300      	movs	r3, #0
 80026aa:	800b      	strh	r3, [r1, #0]
 80026ac:	e7e8      	b.n	8002680 <LEDmultiplexing+0x36c>

080026ae <LEDseparator>:
 80026ae:	0003      	movs	r3, r0
 80026b0:	780a      	ldrb	r2, [r1, #0]
 80026b2:	3368      	adds	r3, #104	; 0x68
 80026b4:	701a      	strb	r2, [r3, #0]
 80026b6:	784a      	ldrb	r2, [r1, #1]
 80026b8:	306a      	adds	r0, #106	; 0x6a
 80026ba:	705a      	strb	r2, [r3, #1]
 80026bc:	788b      	ldrb	r3, [r1, #2]
 80026be:	7003      	strb	r3, [r0, #0]
 80026c0:	4770      	bx	lr

080026c2 <LEDclear>:
 80026c2:	b510      	push	{r4, lr}
 80026c4:	2204      	movs	r2, #4
 80026c6:	0004      	movs	r4, r0
 80026c8:	2120      	movs	r1, #32
 80026ca:	3060      	adds	r0, #96	; 0x60
 80026cc:	f000 fecf 	bl	800346e <memset>
 80026d0:	2304      	movs	r3, #4
 80026d2:	3464      	adds	r4, #100	; 0x64
 80026d4:	7023      	strb	r3, [r4, #0]
 80026d6:	bd10      	pop	{r4, pc}

080026d8 <LEDinit>:
 80026d8:	b5f0      	push	{r4, r5, r6, r7, lr}
 80026da:	0004      	movs	r4, r0
 80026dc:	469c      	mov	ip, r3
 80026de:	6461      	str	r1, [r4, #68]	; 0x44
 80026e0:	1ca1      	adds	r1, r4, #2
 80026e2:	87ca      	strh	r2, [r1, #62]	; 0x3e
 80026e4:	4662      	mov	r2, ip
 80026e6:	64e2      	str	r2, [r4, #76]	; 0x4c
 80026e8:	0022      	movs	r2, r4
 80026ea:	b087      	sub	sp, #28
 80026ec:	ab0c      	add	r3, sp, #48	; 0x30
 80026ee:	881b      	ldrh	r3, [r3, #0]
 80026f0:	3248      	adds	r2, #72	; 0x48
 80026f2:	8013      	strh	r3, [r2, #0]
 80026f4:	9b0d      	ldr	r3, [sp, #52]	; 0x34
 80026f6:	a80e      	add	r0, sp, #56	; 0x38
 80026f8:	6563      	str	r3, [r4, #84]	; 0x54
 80026fa:	0023      	movs	r3, r4
 80026fc:	8800      	ldrh	r0, [r0, #0]
 80026fe:	3350      	adds	r3, #80	; 0x50
 8002700:	9000      	str	r0, [sp, #0]
 8002702:	a810      	add	r0, sp, #64	; 0x40
 8002704:	8800      	ldrh	r0, [r0, #0]
 8002706:	9a00      	ldr	r2, [sp, #0]
 8002708:	9001      	str	r0, [sp, #4]
 800270a:	a812      	add	r0, sp, #72	; 0x48
 800270c:	8800      	ldrh	r0, [r0, #0]
 800270e:	801a      	strh	r2, [r3, #0]
 8002710:	9002      	str	r0, [sp, #8]
 8002712:	a814      	add	r0, sp, #80	; 0x50
 8002714:	8800      	ldrh	r0, [r0, #0]
 8002716:	9b0f      	ldr	r3, [sp, #60]	; 0x3c
 8002718:	9003      	str	r0, [sp, #12]
 800271a:	a816      	add	r0, sp, #88	; 0x58
 800271c:	8800      	ldrh	r0, [r0, #0]
 800271e:	65e3      	str	r3, [r4, #92]	; 0x5c
 8002720:	9004      	str	r0, [sp, #16]
 8002722:	a818      	add	r0, sp, #96	; 0x60
 8002724:	8800      	ldrh	r0, [r0, #0]
 8002726:	0023      	movs	r3, r4
 8002728:	9005      	str	r0, [sp, #20]
 800272a:	a81a      	add	r0, sp, #104	; 0x68
 800272c:	8807      	ldrh	r7, [r0, #0]
 800272e:	201a      	movs	r0, #26
 8002730:	9a01      	ldr	r2, [sp, #4]
 8002732:	ad06      	add	r5, sp, #24
 8002734:	1940      	adds	r0, r0, r5
 8002736:	3358      	adds	r3, #88	; 0x58
 8002738:	801a      	strh	r2, [r3, #0]
 800273a:	8fc6      	ldrh	r6, [r0, #62]	; 0x3e
 800273c:	9b11      	ldr	r3, [sp, #68]	; 0x44
 800273e:	a81e      	add	r0, sp, #120	; 0x78
 8002740:	8805      	ldrh	r5, [r0, #0]
 8002742:	a820      	add	r0, sp, #128	; 0x80
 8002744:	8800      	ldrh	r0, [r0, #0]
 8002746:	6063      	str	r3, [r4, #4]
 8002748:	9b02      	ldr	r3, [sp, #8]
 800274a:	8427      	strh	r7, [r4, #32]
 800274c:	8023      	strh	r3, [r4, #0]
 800274e:	9b13      	ldr	r3, [sp, #76]	; 0x4c
 8002750:	8526      	strh	r6, [r4, #40]	; 0x28
 8002752:	60e3      	str	r3, [r4, #12]
 8002754:	9b03      	ldr	r3, [sp, #12]
 8002756:	8625      	strh	r5, [r4, #48]	; 0x30
 8002758:	8123      	strh	r3, [r4, #8]
 800275a:	9b15      	ldr	r3, [sp, #84]	; 0x54
 800275c:	8720      	strh	r0, [r4, #56]	; 0x38
 800275e:	6163      	str	r3, [r4, #20]
 8002760:	9b04      	ldr	r3, [sp, #16]
 8002762:	0020      	movs	r0, r4
 8002764:	8223      	strh	r3, [r4, #16]
 8002766:	9b17      	ldr	r3, [sp, #92]	; 0x5c
 8002768:	61e3      	str	r3, [r4, #28]
 800276a:	9b05      	ldr	r3, [sp, #20]
 800276c:	8323      	strh	r3, [r4, #24]
 800276e:	9b19      	ldr	r3, [sp, #100]	; 0x64
 8002770:	6263      	str	r3, [r4, #36]	; 0x24
 8002772:	9b1b      	ldr	r3, [sp, #108]	; 0x6c
 8002774:	62e3      	str	r3, [r4, #44]	; 0x2c
 8002776:	9b1d      	ldr	r3, [sp, #116]	; 0x74
 8002778:	6363      	str	r3, [r4, #52]	; 0x34
 800277a:	9b1f      	ldr	r3, [sp, #124]	; 0x7c
 800277c:	63e3      	str	r3, [r4, #60]	; 0x3c
 800277e:	f7ff ffa0 	bl	80026c2 <LEDclear>
 8002782:	2300      	movs	r3, #0
 8002784:	3465      	adds	r4, #101	; 0x65
 8002786:	7023      	strb	r3, [r4, #0]
 8002788:	b007      	add	sp, #28
 800278a:	bdf0      	pop	{r4, r5, r6, r7, pc}

0800278c <LEDstr>:
 800278c:	b5f0      	push	{r4, r5, r6, r7, lr}
 800278e:	0001      	movs	r1, r0
 8002790:	0005      	movs	r5, r0
 8002792:	0006      	movs	r6, r0
 8002794:	2700      	movs	r7, #0
 8002796:	3160      	adds	r1, #96	; 0x60
 8002798:	3564      	adds	r5, #100	; 0x64
 800279a:	3667      	adds	r6, #103	; 0x67
 800279c:	3066      	adds	r0, #102	; 0x66
 800279e:	7814      	ldrb	r4, [r2, #0]
 80027a0:	2b00      	cmp	r3, #0
 80027a2:	d105      	bne.n	80027b0 <LEDstr+0x24>
 80027a4:	700c      	strb	r4, [r1, #0]
 80027a6:	3101      	adds	r1, #1
 80027a8:	3201      	adds	r2, #1
 80027aa:	42a9      	cmp	r1, r5
 80027ac:	d1f7      	bne.n	800279e <LEDstr+0x12>
 80027ae:	bdf0      	pop	{r4, r5, r6, r7, pc}
 80027b0:	730c      	strb	r4, [r1, #12]
 80027b2:	7033      	strb	r3, [r6, #0]
 80027b4:	7007      	strb	r7, [r0, #0]
 80027b6:	e7f6      	b.n	80027a6 <LEDstr+0x1a>

080027b8 <LEDdot>:
 80027b8:	3064      	adds	r0, #100	; 0x64
 80027ba:	7001      	strb	r1, [r0, #0]
 80027bc:	4770      	bx	lr

080027be <menuInit>:
 80027be:	b510      	push	{r4, lr}
 80027c0:	0001      	movs	r1, r0
 80027c2:	220a      	movs	r2, #10
 80027c4:	30f0      	adds	r0, #240	; 0xf0
 80027c6:	f000 fe49 	bl	800345c <memcpy>
 80027ca:	bd10      	pop	{r4, pc}

080027cc <menuItemChangeValue>:
 80027cc:	b5f0      	push	{r4, r5, r6, r7, lr}
 80027ce:	ac05      	add	r4, sp, #20
 80027d0:	260a      	movs	r6, #10
 80027d2:	7825      	ldrb	r5, [r4, #0]
 80027d4:	241e      	movs	r4, #30
 80027d6:	4356      	muls	r6, r2
 80027d8:	434c      	muls	r4, r1
 80027da:	19a4      	adds	r4, r4, r6
 80027dc:	2600      	movs	r6, #0
 80027de:	1904      	adds	r4, r0, r4
 80027e0:	5d9f      	ldrb	r7, [r3, r6]
 80027e2:	55a7      	strb	r7, [r4, r6]
 80027e4:	3601      	adds	r6, #1
 80027e6:	2e05      	cmp	r6, #5
 80027e8:	d1fa      	bne.n	80027e0 <menuItemChangeValue+0x14>
 80027ea:	230a      	movs	r3, #10
 80027ec:	435a      	muls	r2, r3
 80027ee:	3314      	adds	r3, #20
 80027f0:	4359      	muls	r1, r3
 80027f2:	1852      	adds	r2, r2, r1
 80027f4:	1880      	adds	r0, r0, r2
 80027f6:	7105      	strb	r5, [r0, #4]
 80027f8:	bdf0      	pop	{r4, r5, r6, r7, pc}

080027fa <menuItemInit>:
 80027fa:	b5f0      	push	{r4, r5, r6, r7, lr}
 80027fc:	ac05      	add	r4, sp, #20
 80027fe:	7826      	ldrb	r6, [r4, #0]
 8002800:	ac06      	add	r4, sp, #24
 8002802:	7825      	ldrb	r5, [r4, #0]
 8002804:	271e      	movs	r7, #30
 8002806:	240a      	movs	r4, #10
 8002808:	434f      	muls	r7, r1
 800280a:	4354      	muls	r4, r2
 800280c:	19e4      	adds	r4, r4, r7
 800280e:	1900      	adds	r0, r0, r4
 8002810:	7206      	strb	r6, [r0, #8]
 8002812:	7245      	strb	r5, [r0, #9]
 8002814:	7141      	strb	r1, [r0, #5]
 8002816:	7182      	strb	r2, [r0, #6]
 8002818:	71c3      	strb	r3, [r0, #7]
 800281a:	bdf0      	pop	{r4, r5, r6, r7, pc}

0800281c <menuSwitch>:
 800281c:	b570      	push	{r4, r5, r6, lr}
 800281e:	0004      	movs	r4, r0
 8002820:	000d      	movs	r5, r1
 8002822:	2902      	cmp	r1, #2
 8002824:	d134      	bne.n	8002890 <menuSwitch+0x74>
 8002826:	0003      	movs	r3, r0
 8002828:	33f6      	adds	r3, #246	; 0xf6
 800282a:	781a      	ldrb	r2, [r3, #0]
 800282c:	30f5      	adds	r0, #245	; 0xf5
 800282e:	7805      	ldrb	r5, [r0, #0]
 8002830:	2a00      	cmp	r2, #0
 8002832:	d11e      	bne.n	8002872 <menuSwitch+0x56>
 8002834:	2d00      	cmp	r5, #0
 8002836:	d01a      	beq.n	800286e <menuSwitch+0x52>
 8002838:	3d01      	subs	r5, #1
 800283a:	b2e9      	uxtb	r1, r5
 800283c:	230a      	movs	r3, #10
 800283e:	251e      	movs	r5, #30
 8002840:	7001      	strb	r1, [r0, #0]
 8002842:	0020      	movs	r0, r4
 8002844:	434d      	muls	r5, r1
 8002846:	435a      	muls	r2, r3
 8002848:	30f0      	adds	r0, #240	; 0xf0
 800284a:	18ad      	adds	r5, r5, r2
 800284c:	1965      	adds	r5, r4, r5
 800284e:	2204      	movs	r2, #4
 8002850:	0029      	movs	r1, r5
 8002852:	f000 fe03 	bl	800345c <memcpy>
 8002856:	0023      	movs	r3, r4
 8002858:	792a      	ldrb	r2, [r5, #4]
 800285a:	33f4      	adds	r3, #244	; 0xf4
 800285c:	701a      	strb	r2, [r3, #0]
 800285e:	79ea      	ldrb	r2, [r5, #7]
 8002860:	34f9      	adds	r4, #249	; 0xf9
 8002862:	70da      	strb	r2, [r3, #3]
 8002864:	7a2a      	ldrb	r2, [r5, #8]
 8002866:	711a      	strb	r2, [r3, #4]
 8002868:	7a6b      	ldrb	r3, [r5, #9]
 800286a:	2501      	movs	r5, #1
 800286c:	7023      	strb	r3, [r4, #0]
 800286e:	0028      	movs	r0, r5
 8002870:	bd70      	pop	{r4, r5, r6, pc}
 8002872:	0023      	movs	r3, r4
 8002874:	33f7      	adds	r3, #247	; 0xf7
 8002876:	781e      	ldrb	r6, [r3, #0]
 8002878:	230a      	movs	r3, #10
 800287a:	1e51      	subs	r1, r2, #1
 800287c:	434b      	muls	r3, r1
 800287e:	211e      	movs	r1, #30
 8002880:	4371      	muls	r1, r6
 8002882:	185b      	adds	r3, r3, r1
 8002884:	18e3      	adds	r3, r4, r3
 8002886:	7a1b      	ldrb	r3, [r3, #8]
 8002888:	42ab      	cmp	r3, r5
 800288a:	d3d5      	bcc.n	8002838 <menuSwitch+0x1c>
 800288c:	2500      	movs	r5, #0
 800288e:	e7ee      	b.n	800286e <menuSwitch+0x52>
 8002890:	2903      	cmp	r1, #3
 8002892:	d122      	bne.n	80028da <menuSwitch+0xbe>
 8002894:	0003      	movs	r3, r0
 8002896:	0002      	movs	r2, r0
 8002898:	33f6      	adds	r3, #246	; 0xf6
 800289a:	781d      	ldrb	r5, [r3, #0]
 800289c:	32f5      	adds	r2, #245	; 0xf5
 800289e:	7811      	ldrb	r1, [r2, #0]
 80028a0:	2d00      	cmp	r5, #0
 80028a2:	d10c      	bne.n	80028be <menuSwitch+0xa2>
 80028a4:	2906      	cmp	r1, #6
 80028a6:	d8e2      	bhi.n	800286e <menuSwitch+0x52>
 80028a8:	231e      	movs	r3, #30
 80028aa:	0020      	movs	r0, r4
 80028ac:	3101      	adds	r1, #1
 80028ae:	b2c9      	uxtb	r1, r1
 80028b0:	7011      	strb	r1, [r2, #0]
 80028b2:	4359      	muls	r1, r3
 80028b4:	3b14      	subs	r3, #20
 80028b6:	435d      	muls	r5, r3
 80028b8:	30f0      	adds	r0, #240	; 0xf0
 80028ba:	194d      	adds	r5, r1, r5
 80028bc:	e7c6      	b.n	800284c <menuSwitch+0x30>
 80028be:	0023      	movs	r3, r4
 80028c0:	33f7      	adds	r3, #247	; 0xf7
 80028c2:	781e      	ldrb	r6, [r3, #0]
 80028c4:	230a      	movs	r3, #10
 80028c6:	1e68      	subs	r0, r5, #1
 80028c8:	4343      	muls	r3, r0
 80028ca:	201e      	movs	r0, #30
 80028cc:	4370      	muls	r0, r6
 80028ce:	181b      	adds	r3, r3, r0
 80028d0:	18e3      	adds	r3, r4, r3
 80028d2:	7a5b      	ldrb	r3, [r3, #9]
 80028d4:	428b      	cmp	r3, r1
 80028d6:	d9d9      	bls.n	800288c <menuSwitch+0x70>
 80028d8:	e7e6      	b.n	80028a8 <menuSwitch+0x8c>
 80028da:	2900      	cmp	r1, #0
 80028dc:	d125      	bne.n	800292a <menuSwitch+0x10e>
 80028de:	0001      	movs	r1, r0
 80028e0:	31f8      	adds	r1, #248	; 0xf8
 80028e2:	7808      	ldrb	r0, [r1, #0]
 80028e4:	28ff      	cmp	r0, #255	; 0xff
 80028e6:	d0c2      	beq.n	800286e <menuSwitch+0x52>
 80028e8:	0023      	movs	r3, r4
 80028ea:	0022      	movs	r2, r4
 80028ec:	33f5      	adds	r3, #245	; 0xf5
 80028ee:	781d      	ldrb	r5, [r3, #0]
 80028f0:	32f7      	adds	r2, #247	; 0xf7
 80028f2:	7015      	strb	r5, [r2, #0]
 80028f4:	7018      	strb	r0, [r3, #0]
 80028f6:	3a01      	subs	r2, #1
 80028f8:	7813      	ldrb	r3, [r2, #0]
 80028fa:	3301      	adds	r3, #1
 80028fc:	b2db      	uxtb	r3, r3
 80028fe:	7013      	strb	r3, [r2, #0]
 8002900:	220a      	movs	r2, #10
 8002902:	4353      	muls	r3, r2
 8002904:	3214      	adds	r2, #20
 8002906:	4342      	muls	r2, r0
 8002908:	189b      	adds	r3, r3, r2
 800290a:	18e5      	adds	r5, r4, r3
 800290c:	7a2b      	ldrb	r3, [r5, #8]
 800290e:	0020      	movs	r0, r4
 8002910:	700b      	strb	r3, [r1, #0]
 8002912:	0023      	movs	r3, r4
 8002914:	7a6a      	ldrb	r2, [r5, #9]
 8002916:	33f9      	adds	r3, #249	; 0xf9
 8002918:	701a      	strb	r2, [r3, #0]
 800291a:	0029      	movs	r1, r5
 800291c:	2204      	movs	r2, #4
 800291e:	30f0      	adds	r0, #240	; 0xf0
 8002920:	f000 fd9c 	bl	800345c <memcpy>
 8002924:	34f4      	adds	r4, #244	; 0xf4
 8002926:	792b      	ldrb	r3, [r5, #4]
 8002928:	e79f      	b.n	800286a <menuSwitch+0x4e>
 800292a:	2901      	cmp	r1, #1
 800292c:	d1ae      	bne.n	800288c <menuSwitch+0x70>
 800292e:	0003      	movs	r3, r0
 8002930:	33f7      	adds	r3, #247	; 0xf7
 8002932:	7819      	ldrb	r1, [r3, #0]
 8002934:	29ff      	cmp	r1, #255	; 0xff
 8002936:	d0a9      	beq.n	800288c <menuSwitch+0x70>
 8002938:	0002      	movs	r2, r0
 800293a:	32f5      	adds	r2, #245	; 0xf5
 800293c:	7011      	strb	r1, [r2, #0]
 800293e:	1e4a      	subs	r2, r1, #1
 8002940:	701a      	strb	r2, [r3, #0]
 8002942:	0002      	movs	r2, r0
 8002944:	32f6      	adds	r2, #246	; 0xf6
 8002946:	7813      	ldrb	r3, [r2, #0]
 8002948:	34f4      	adds	r4, #244	; 0xf4
 800294a:	3b01      	subs	r3, #1
 800294c:	b2db      	uxtb	r3, r3
 800294e:	7013      	strb	r3, [r2, #0]
 8002950:	220a      	movs	r2, #10
 8002952:	4353      	muls	r3, r2
 8002954:	3214      	adds	r2, #20
 8002956:	4351      	muls	r1, r2
 8002958:	185b      	adds	r3, r3, r1
 800295a:	18c6      	adds	r6, r0, r3
 800295c:	0003      	movs	r3, r0
 800295e:	7a32      	ldrb	r2, [r6, #8]
 8002960:	33f8      	adds	r3, #248	; 0xf8
 8002962:	701a      	strb	r2, [r3, #0]
 8002964:	7a72      	ldrb	r2, [r6, #9]
 8002966:	0031      	movs	r1, r6
 8002968:	705a      	strb	r2, [r3, #1]
 800296a:	30f0      	adds	r0, #240	; 0xf0
 800296c:	2204      	movs	r2, #4
 800296e:	f000 fd75 	bl	800345c <memcpy>
 8002972:	7933      	ldrb	r3, [r6, #4]
 8002974:	7023      	strb	r3, [r4, #0]
 8002976:	e77a      	b.n	800286e <menuSwitch+0x52>

08002978 <SystemClock_Config>:
 8002978:	b500      	push	{lr}
 800297a:	b093      	sub	sp, #76	; 0x4c
 800297c:	2238      	movs	r2, #56	; 0x38
 800297e:	2100      	movs	r1, #0
 8002980:	a804      	add	r0, sp, #16
 8002982:	f000 fd74 	bl	800346e <memset>
 8002986:	2100      	movs	r1, #0
 8002988:	2210      	movs	r2, #16
 800298a:	4668      	mov	r0, sp
 800298c:	f000 fd6f 	bl	800346e <memset>
 8002990:	2080      	movs	r0, #128	; 0x80
 8002992:	0080      	lsls	r0, r0, #2
 8002994:	f7fe fb0e 	bl	8000fb4 <HAL_PWREx_ControlVoltageScaling>
 8002998:	2302      	movs	r3, #2
 800299a:	9304      	str	r3, [sp, #16]
 800299c:	33fe      	adds	r3, #254	; 0xfe
 800299e:	2240      	movs	r2, #64	; 0x40
 80029a0:	9307      	str	r3, [sp, #28]
 80029a2:	2300      	movs	r3, #0
 80029a4:	a804      	add	r0, sp, #16
 80029a6:	9308      	str	r3, [sp, #32]
 80029a8:	9209      	str	r2, [sp, #36]	; 0x24
 80029aa:	930b      	str	r3, [sp, #44]	; 0x2c
 80029ac:	f7fe fb2e 	bl	800100c <HAL_RCC_OscConfig>
 80029b0:	1e01      	subs	r1, r0, #0
 80029b2:	d001      	beq.n	80029b8 <SystemClock_Config+0x40>
 80029b4:	b672      	cpsid	i
 80029b6:	e7fe      	b.n	80029b6 <SystemClock_Config+0x3e>
 80029b8:	2307      	movs	r3, #7
 80029ba:	9001      	str	r0, [sp, #4]
 80029bc:	9002      	str	r0, [sp, #8]
 80029be:	9003      	str	r0, [sp, #12]
 80029c0:	4668      	mov	r0, sp
 80029c2:	9300      	str	r3, [sp, #0]
 80029c4:	f7fe fd8c 	bl	80014e0 <HAL_RCC_ClockConfig>
 80029c8:	2800      	cmp	r0, #0
 80029ca:	d001      	beq.n	80029d0 <SystemClock_Config+0x58>
 80029cc:	b672      	cpsid	i
 80029ce:	e7fe      	b.n	80029ce <SystemClock_Config+0x56>
 80029d0:	b013      	add	sp, #76	; 0x4c
 80029d2:	bd00      	pop	{pc}

080029d4 <main>:
 80029d4:	b5f0      	push	{r4, r5, r6, r7, lr}
 80029d6:	b0a3      	sub	sp, #140	; 0x8c
 80029d8:	f7fd fe66 	bl	80006a8 <HAL_Init>
 80029dc:	f7ff ffcc 	bl	8002978 <SystemClock_Config>
 80029e0:	2214      	movs	r2, #20
 80029e2:	2100      	movs	r1, #0
 80029e4:	a81d      	add	r0, sp, #116	; 0x74
 80029e6:	f000 fd42 	bl	800346e <memset>
 80029ea:	2002      	movs	r0, #2
 80029ec:	2701      	movs	r7, #1
 80029ee:	4b8f      	ldr	r3, [pc, #572]	; (8002c2c <main+0x258>)
 80029f0:	4c8f      	ldr	r4, [pc, #572]	; (8002c30 <main+0x25c>)
 80029f2:	6b59      	ldr	r1, [r3, #52]	; 0x34
 80029f4:	2507      	movs	r5, #7
 80029f6:	4301      	orrs	r1, r0
 80029f8:	6359      	str	r1, [r3, #52]	; 0x34
 80029fa:	2104      	movs	r1, #4
 80029fc:	6b5a      	ldr	r2, [r3, #52]	; 0x34
 80029fe:	4002      	ands	r2, r0
 8002a00:	20a0      	movs	r0, #160	; 0xa0
 8002a02:	9217      	str	r2, [sp, #92]	; 0x5c
 8002a04:	9a17      	ldr	r2, [sp, #92]	; 0x5c
 8002a06:	6b5a      	ldr	r2, [r3, #52]	; 0x34
 8002a08:	05c0      	lsls	r0, r0, #23
 8002a0a:	433a      	orrs	r2, r7
 8002a0c:	635a      	str	r2, [r3, #52]	; 0x34
 8002a0e:	6b5a      	ldr	r2, [r3, #52]	; 0x34
 8002a10:	403a      	ands	r2, r7
 8002a12:	9218      	str	r2, [sp, #96]	; 0x60
 8002a14:	9a18      	ldr	r2, [sp, #96]	; 0x60
 8002a16:	6b5a      	ldr	r2, [r3, #52]	; 0x34
 8002a18:	430a      	orrs	r2, r1
 8002a1a:	635a      	str	r2, [r3, #52]	; 0x34
 8002a1c:	6b5b      	ldr	r3, [r3, #52]	; 0x34
 8002a1e:	2200      	movs	r2, #0
 8002a20:	400b      	ands	r3, r1
 8002a22:	9319      	str	r3, [sp, #100]	; 0x64
 8002a24:	0021      	movs	r1, r4
 8002a26:	9b19      	ldr	r3, [sp, #100]	; 0x64
 8002a28:	f7fe f9e8 	bl	8000dfc <HAL_GPIO_WritePin>
 8002a2c:	2200      	movs	r2, #0
 8002a2e:	2107      	movs	r1, #7
 8002a30:	4880      	ldr	r0, [pc, #512]	; (8002c34 <main+0x260>)
 8002a32:	f7fe f9e3 	bl	8000dfc <HAL_GPIO_WritePin>
 8002a36:	2200      	movs	r2, #0
 8002a38:	2140      	movs	r1, #64	; 0x40
 8002a3a:	487f      	ldr	r0, [pc, #508]	; (8002c38 <main+0x264>)
 8002a3c:	f7fe f9de 	bl	8000dfc <HAL_GPIO_WritePin>
 8002a40:	20a0      	movs	r0, #160	; 0xa0
 8002a42:	941d      	str	r4, [sp, #116]	; 0x74
 8002a44:	2400      	movs	r4, #0
 8002a46:	ab1d      	add	r3, sp, #116	; 0x74
 8002a48:	0019      	movs	r1, r3
 8002a4a:	05c0      	lsls	r0, r0, #23
 8002a4c:	971e      	str	r7, [sp, #120]	; 0x78
 8002a4e:	941f      	str	r4, [sp, #124]	; 0x7c
 8002a50:	9420      	str	r4, [sp, #128]	; 0x80
 8002a52:	f7fe f91f 	bl	8000c94 <HAL_GPIO_Init>
 8002a56:	ab1d      	add	r3, sp, #116	; 0x74
 8002a58:	0019      	movs	r1, r3
 8002a5a:	4876      	ldr	r0, [pc, #472]	; (8002c34 <main+0x260>)
 8002a5c:	951d      	str	r5, [sp, #116]	; 0x74
 8002a5e:	971e      	str	r7, [sp, #120]	; 0x78
 8002a60:	941f      	str	r4, [sp, #124]	; 0x7c
 8002a62:	9420      	str	r4, [sp, #128]	; 0x80
 8002a64:	f7fe f916 	bl	8000c94 <HAL_GPIO_Init>
 8002a68:	2340      	movs	r3, #64	; 0x40
 8002a6a:	931d      	str	r3, [sp, #116]	; 0x74
 8002a6c:	ab1d      	add	r3, sp, #116	; 0x74
 8002a6e:	0019      	movs	r1, r3
 8002a70:	4871      	ldr	r0, [pc, #452]	; (8002c38 <main+0x264>)
 8002a72:	971e      	str	r7, [sp, #120]	; 0x78
 8002a74:	941f      	str	r4, [sp, #124]	; 0x7c
 8002a76:	9420      	str	r4, [sp, #128]	; 0x80
 8002a78:	f7fe f90c 	bl	8000c94 <HAL_GPIO_Init>
 8002a7c:	2338      	movs	r3, #56	; 0x38
 8002a7e:	931d      	str	r3, [sp, #116]	; 0x74
 8002a80:	2384      	movs	r3, #132	; 0x84
 8002a82:	039b      	lsls	r3, r3, #14
 8002a84:	931e      	str	r3, [sp, #120]	; 0x78
 8002a86:	ab1d      	add	r3, sp, #116	; 0x74
 8002a88:	0019      	movs	r1, r3
 8002a8a:	486a      	ldr	r0, [pc, #424]	; (8002c34 <main+0x260>)
 8002a8c:	971f      	str	r7, [sp, #124]	; 0x7c
 8002a8e:	f7fe f901 	bl	8000c94 <HAL_GPIO_Init>
 8002a92:	23c0      	movs	r3, #192	; 0xc0
 8002a94:	931d      	str	r3, [sp, #116]	; 0x74
 8002a96:	23c4      	movs	r3, #196	; 0xc4
 8002a98:	039b      	lsls	r3, r3, #14
 8002a9a:	931e      	str	r3, [sp, #120]	; 0x78
 8002a9c:	ab1d      	add	r3, sp, #116	; 0x74
 8002a9e:	0019      	movs	r1, r3
 8002aa0:	4864      	ldr	r0, [pc, #400]	; (8002c34 <main+0x260>)
 8002aa2:	941f      	str	r4, [sp, #124]	; 0x7c
 8002aa4:	f7fe f8f6 	bl	8000c94 <HAL_GPIO_Init>
 8002aa8:	0022      	movs	r2, r4
 8002aaa:	0021      	movs	r1, r4
 8002aac:	2006      	movs	r0, #6
 8002aae:	f7fe f8a1 	bl	8000bf4 <HAL_NVIC_SetPriority>
 8002ab2:	2006      	movs	r0, #6
 8002ab4:	f7fe f8c8 	bl	8000c48 <HAL_NVIC_EnableIRQ>
 8002ab8:	0022      	movs	r2, r4
 8002aba:	0021      	movs	r1, r4
 8002abc:	0028      	movs	r0, r5
 8002abe:	f7fe f899 	bl	8000bf4 <HAL_NVIC_SetPriority>
 8002ac2:	0028      	movs	r0, r5
 8002ac4:	f7fe f8c0 	bl	8000c48 <HAL_NVIC_EnableIRQ>
 8002ac8:	2210      	movs	r2, #16
 8002aca:	0021      	movs	r1, r4
 8002acc:	a81d      	add	r0, sp, #116	; 0x74
 8002ace:	f000 fcce 	bl	800346e <memset>
 8002ad2:	0021      	movs	r1, r4
 8002ad4:	220c      	movs	r2, #12
 8002ad6:	a81a      	add	r0, sp, #104	; 0x68
 8002ad8:	f000 fcc9 	bl	800346e <memset>
 8002adc:	2104      	movs	r1, #4
 8002ade:	4e57      	ldr	r6, [pc, #348]	; (8002c3c <main+0x268>)
 8002ae0:	4b57      	ldr	r3, [pc, #348]	; (8002c40 <main+0x26c>)
 8002ae2:	0030      	movs	r0, r6
 8002ae4:	6033      	str	r3, [r6, #0]
 8002ae6:	4b57      	ldr	r3, [pc, #348]	; (8002c44 <main+0x270>)
 8002ae8:	6071      	str	r1, [r6, #4]
 8002aea:	60b4      	str	r4, [r6, #8]
 8002aec:	60f3      	str	r3, [r6, #12]
 8002aee:	6134      	str	r4, [r6, #16]
 8002af0:	6174      	str	r4, [r6, #20]
 8002af2:	61b4      	str	r4, [r6, #24]
 8002af4:	f7fe fffa 	bl	8001aec <HAL_TIM_Base_Init>
 8002af8:	42a0      	cmp	r0, r4
 8002afa:	d001      	beq.n	8002b00 <main+0x12c>
 8002afc:	b672      	cpsid	i
 8002afe:	e7fe      	b.n	8002afe <main+0x12a>
 8002b00:	2380      	movs	r3, #128	; 0x80
 8002b02:	0030      	movs	r0, r6
 8002b04:	015b      	lsls	r3, r3, #5
 8002b06:	a91d      	add	r1, sp, #116	; 0x74
 8002b08:	931d      	str	r3, [sp, #116]	; 0x74
 8002b0a:	f7ff f825 	bl	8001b58 <HAL_TIM_ConfigClockSource>
 8002b0e:	2800      	cmp	r0, #0
 8002b10:	d001      	beq.n	8002b16 <main+0x142>
 8002b12:	b672      	cpsid	i
 8002b14:	e7fe      	b.n	8002b14 <main+0x140>
 8002b16:	901a      	str	r0, [sp, #104]	; 0x68
 8002b18:	901b      	str	r0, [sp, #108]	; 0x6c
 8002b1a:	901c      	str	r0, [sp, #112]	; 0x70
 8002b1c:	a91a      	add	r1, sp, #104	; 0x68
 8002b1e:	0030      	movs	r0, r6
 8002b20:	f7ff f8ae 	bl	8001c80 <HAL_TIMEx_MasterConfigSynchronization>
 8002b24:	1e05      	subs	r5, r0, #0
 8002b26:	d001      	beq.n	8002b2c <main+0x158>
 8002b28:	b672      	cpsid	i
 8002b2a:	e7fe      	b.n	8002b2a <main+0x156>
 8002b2c:	0001      	movs	r1, r0
 8002b2e:	220c      	movs	r2, #12
 8002b30:	a81d      	add	r0, sp, #116	; 0x74
 8002b32:	f000 fc9c 	bl	800346e <memset>
 8002b36:	4c44      	ldr	r4, [pc, #272]	; (8002c48 <main+0x274>)
 8002b38:	4b44      	ldr	r3, [pc, #272]	; (8002c4c <main+0x278>)
 8002b3a:	0020      	movs	r0, r4
 8002b3c:	6023      	str	r3, [r4, #0]
 8002b3e:	2380      	movs	r3, #128	; 0x80
 8002b40:	05db      	lsls	r3, r3, #23
 8002b42:	6063      	str	r3, [r4, #4]
 8002b44:	2304      	movs	r3, #4
 8002b46:	6163      	str	r3, [r4, #20]
 8002b48:	0023      	movs	r3, r4
 8002b4a:	332c      	adds	r3, #44	; 0x2c
 8002b4c:	701d      	strb	r5, [r3, #0]
 8002b4e:	0023      	movs	r3, r4
 8002b50:	8325      	strh	r5, [r4, #24]
 8002b52:	333c      	adds	r3, #60	; 0x3c
 8002b54:	60a5      	str	r5, [r4, #8]
 8002b56:	60e5      	str	r5, [r4, #12]
 8002b58:	6125      	str	r5, [r4, #16]
 8002b5a:	76a5      	strb	r5, [r4, #26]
 8002b5c:	61e7      	str	r7, [r4, #28]
 8002b5e:	6265      	str	r5, [r4, #36]	; 0x24
 8002b60:	62a5      	str	r5, [r4, #40]	; 0x28
 8002b62:	6325      	str	r5, [r4, #48]	; 0x30
 8002b64:	6365      	str	r5, [r4, #52]	; 0x34
 8002b66:	63a5      	str	r5, [r4, #56]	; 0x38
 8002b68:	701d      	strb	r5, [r3, #0]
 8002b6a:	64e5      	str	r5, [r4, #76]	; 0x4c
 8002b6c:	f7fd fde4 	bl	8000738 <HAL_ADC_Init>
 8002b70:	2800      	cmp	r0, #0
 8002b72:	d001      	beq.n	8002b78 <main+0x1a4>
 8002b74:	b672      	cpsid	i
 8002b76:	e7fe      	b.n	8002b76 <main+0x1a2>
 8002b78:	901e      	str	r0, [sp, #120]	; 0x78
 8002b7a:	901f      	str	r0, [sp, #124]	; 0x7c
 8002b7c:	a91d      	add	r1, sp, #116	; 0x74
 8002b7e:	0020      	movs	r0, r4
 8002b80:	971d      	str	r7, [sp, #116]	; 0x74
 8002b82:	f7fd ff11 	bl	80009a8 <HAL_ADC_ConfigChannel>
 8002b86:	2800      	cmp	r0, #0
 8002b88:	d001      	beq.n	8002b8e <main+0x1ba>
 8002b8a:	b672      	cpsid	i
 8002b8c:	e7fe      	b.n	8002b8c <main+0x1b8>
 8002b8e:	4c30      	ldr	r4, [pc, #192]	; (8002c50 <main+0x27c>)
 8002b90:	4b30      	ldr	r3, [pc, #192]	; (8002c54 <main+0x280>)
 8002b92:	60a0      	str	r0, [r4, #8]
 8002b94:	6023      	str	r3, [r4, #0]
 8002b96:	2396      	movs	r3, #150	; 0x96
 8002b98:	019b      	lsls	r3, r3, #6
 8002b9a:	6063      	str	r3, [r4, #4]
 8002b9c:	230c      	movs	r3, #12
 8002b9e:	60e0      	str	r0, [r4, #12]
 8002ba0:	6120      	str	r0, [r4, #16]
 8002ba2:	61a0      	str	r0, [r4, #24]
 8002ba4:	61e0      	str	r0, [r4, #28]
 8002ba6:	6220      	str	r0, [r4, #32]
 8002ba8:	6260      	str	r0, [r4, #36]	; 0x24
 8002baa:	62a0      	str	r0, [r4, #40]	; 0x28
 8002bac:	0020      	movs	r0, r4
 8002bae:	6163      	str	r3, [r4, #20]
 8002bb0:	f7ff fac0 	bl	8002134 <HAL_UART_Init>
 8002bb4:	1e01      	subs	r1, r0, #0
 8002bb6:	d001      	beq.n	8002bbc <main+0x1e8>
 8002bb8:	b672      	cpsid	i
 8002bba:	e7fe      	b.n	8002bba <main+0x1e6>
 8002bbc:	0020      	movs	r0, r4
 8002bbe:	f7ff fb31 	bl	8002224 <HAL_UARTEx_SetTxFifoThreshold>
 8002bc2:	1e01      	subs	r1, r0, #0
 8002bc4:	d001      	beq.n	8002bca <main+0x1f6>
 8002bc6:	b672      	cpsid	i
 8002bc8:	e7fe      	b.n	8002bc8 <main+0x1f4>
 8002bca:	0020      	movs	r0, r4
 8002bcc:	f7ff fb4e 	bl	800226c <HAL_UARTEx_SetRxFifoThreshold>
 8002bd0:	2800      	cmp	r0, #0
 8002bd2:	d001      	beq.n	8002bd8 <main+0x204>
 8002bd4:	b672      	cpsid	i
 8002bd6:	e7fe      	b.n	8002bd6 <main+0x202>
 8002bd8:	0020      	movs	r0, r4
 8002bda:	f7ff fb05 	bl	80021e8 <HAL_UARTEx_DisableFifoMode>
 8002bde:	2800      	cmp	r0, #0
 8002be0:	d001      	beq.n	8002be6 <main+0x212>
 8002be2:	b672      	cpsid	i
 8002be4:	e7fe      	b.n	8002be4 <main+0x210>
 8002be6:	4c1c      	ldr	r4, [pc, #112]	; (8002c58 <main+0x284>)
 8002be8:	4b1c      	ldr	r3, [pc, #112]	; (8002c5c <main+0x288>)
 8002bea:	60a0      	str	r0, [r4, #8]
 8002bec:	6023      	str	r3, [r4, #0]
 8002bee:	4b1c      	ldr	r3, [pc, #112]	; (8002c60 <main+0x28c>)
 8002bf0:	6120      	str	r0, [r4, #16]
 8002bf2:	6160      	str	r0, [r4, #20]
 8002bf4:	61a0      	str	r0, [r4, #24]
 8002bf6:	61e0      	str	r0, [r4, #28]
 8002bf8:	6220      	str	r0, [r4, #32]
 8002bfa:	0020      	movs	r0, r4
 8002bfc:	6063      	str	r3, [r4, #4]
 8002bfe:	60e7      	str	r7, [r4, #12]
 8002c00:	f7fe f916 	bl	8000e30 <HAL_I2C_Init>
 8002c04:	2800      	cmp	r0, #0
 8002c06:	d001      	beq.n	8002c0c <main+0x238>
 8002c08:	b672      	cpsid	i
 8002c0a:	e7fe      	b.n	8002c0a <main+0x236>
 8002c0c:	2100      	movs	r1, #0
 8002c0e:	0020      	movs	r0, r4
 8002c10:	f7fe f964 	bl	8000edc <HAL_I2CEx_ConfigAnalogFilter>
 8002c14:	1e01      	subs	r1, r0, #0
 8002c16:	d001      	beq.n	8002c1c <main+0x248>
 8002c18:	b672      	cpsid	i
 8002c1a:	e7fe      	b.n	8002c1a <main+0x246>
 8002c1c:	0020      	movs	r0, r4
 8002c1e:	f7fe f983 	bl	8000f28 <HAL_I2CEx_ConfigDigitalFilter>
 8002c22:	1e07      	subs	r7, r0, #0
 8002c24:	d01e      	beq.n	8002c64 <main+0x290>
 8002c26:	b672      	cpsid	i
 8002c28:	e7fe      	b.n	8002c28 <main+0x254>
 8002c2a:	46c0      	nop			; (mov r8, r8)
 8002c2c:	40021000 	.word	0x40021000
 8002c30:	00009ff2 	.word	0x00009ff2
 8002c34:	50000400 	.word	0x50000400
 8002c38:	50000800 	.word	0x50000800
 8002c3c:	2000024c 	.word	0x2000024c
 8002c40:	40012c00 	.word	0x40012c00
 8002c44:	000007cf 	.word	0x000007cf
 8002c48:	200001e8 	.word	0x200001e8
 8002c4c:	40012400 	.word	0x40012400
 8002c50:	20000298 	.word	0x20000298
 8002c54:	40004400 	.word	0x40004400
 8002c58:	2000012c 	.word	0x2000012c
 8002c5c:	40005400 	.word	0x40005400
 8002c60:	00303d5b 	.word	0x00303d5b
 8002c64:	0030      	movs	r0, r6
 8002c66:	f7fe fe03 	bl	8001870 <HAL_TIM_Base_Start_IT>
 8002c6a:	2180      	movs	r1, #128	; 0x80
 8002c6c:	0109      	lsls	r1, r1, #4
 8002c6e:	9110      	str	r1, [sp, #64]	; 0x40
 8002c70:	2104      	movs	r1, #4
 8002c72:	910e      	str	r1, [sp, #56]	; 0x38
 8002c74:	31fc      	adds	r1, #252	; 0xfc
 8002c76:	910c      	str	r1, [sp, #48]	; 0x30
 8002c78:	2180      	movs	r1, #128	; 0x80
 8002c7a:	00c9      	lsls	r1, r1, #3
 8002c7c:	9106      	str	r1, [sp, #24]
 8002c7e:	2180      	movs	r1, #128	; 0x80
 8002c80:	2280      	movs	r2, #128	; 0x80
 8002c82:	9104      	str	r1, [sp, #16]
 8002c84:	2180      	movs	r1, #128	; 0x80
 8002c86:	0092      	lsls	r2, r2, #2
 8002c88:	9214      	str	r2, [sp, #80]	; 0x50
 8002c8a:	0209      	lsls	r1, r1, #8
 8002c8c:	4ab5      	ldr	r2, [pc, #724]	; (8002f64 <main+0x590>)
 8002c8e:	9102      	str	r1, [sp, #8]
 8002c90:	23a0      	movs	r3, #160	; 0xa0
 8002c92:	2180      	movs	r1, #128	; 0x80
 8002c94:	2002      	movs	r0, #2
 8002c96:	9211      	str	r2, [sp, #68]	; 0x44
 8002c98:	920d      	str	r2, [sp, #52]	; 0x34
 8002c9a:	9209      	str	r2, [sp, #36]	; 0x24
 8002c9c:	2240      	movs	r2, #64	; 0x40
 8002c9e:	2601      	movs	r6, #1
 8002ca0:	25ff      	movs	r5, #255	; 0xff
 8002ca2:	4cb1      	ldr	r4, [pc, #708]	; (8002f68 <main+0x594>)
 8002ca4:	05db      	lsls	r3, r3, #23
 8002ca6:	0149      	lsls	r1, r1, #5
 8002ca8:	9208      	str	r2, [sp, #32]
 8002caa:	9307      	str	r3, [sp, #28]
 8002cac:	9305      	str	r3, [sp, #20]
 8002cae:	9303      	str	r3, [sp, #12]
 8002cb0:	9301      	str	r3, [sp, #4]
 8002cb2:	900a      	str	r0, [sp, #40]	; 0x28
 8002cb4:	9100      	str	r1, [sp, #0]
 8002cb6:	0020      	movs	r0, r4
 8002cb8:	49ac      	ldr	r1, [pc, #688]	; (8002f6c <main+0x598>)
 8002cba:	9313      	str	r3, [sp, #76]	; 0x4c
 8002cbc:	930f      	str	r3, [sp, #60]	; 0x3c
 8002cbe:	930b      	str	r3, [sp, #44]	; 0x2c
 8002cc0:	9612      	str	r6, [sp, #72]	; 0x48
 8002cc2:	f7ff fd09 	bl	80026d8 <LEDinit>
 8002cc6:	0020      	movs	r0, r4
 8002cc8:	49a9      	ldr	r1, [pc, #676]	; (8002f70 <main+0x59c>)
 8002cca:	f7ff fcf0 	bl	80026ae <LEDseparator>
 8002cce:	4ca9      	ldr	r4, [pc, #676]	; (8002f74 <main+0x5a0>)
 8002cd0:	23ff      	movs	r3, #255	; 0xff
 8002cd2:	0020      	movs	r0, r4
 8002cd4:	003a      	movs	r2, r7
 8002cd6:	0039      	movs	r1, r7
 8002cd8:	9601      	str	r6, [sp, #4]
 8002cda:	9700      	str	r7, [sp, #0]
 8002cdc:	f7ff fd8d 	bl	80027fa <menuItemInit>
 8002ce0:	002b      	movs	r3, r5
 8002ce2:	0020      	movs	r0, r4
 8002ce4:	003a      	movs	r2, r7
 8002ce6:	0031      	movs	r1, r6
 8002ce8:	9501      	str	r5, [sp, #4]
 8002cea:	9500      	str	r5, [sp, #0]
 8002cec:	f7ff fd85 	bl	80027fa <menuItemInit>
 8002cf0:	002b      	movs	r3, r5
 8002cf2:	0020      	movs	r0, r4
 8002cf4:	003a      	movs	r2, r7
 8002cf6:	2102      	movs	r1, #2
 8002cf8:	9501      	str	r5, [sp, #4]
 8002cfa:	9500      	str	r5, [sp, #0]
 8002cfc:	f7ff fd7d 	bl	80027fa <menuItemInit>
 8002d00:	002b      	movs	r3, r5
 8002d02:	0020      	movs	r0, r4
 8002d04:	003a      	movs	r2, r7
 8002d06:	2103      	movs	r1, #3
 8002d08:	9501      	str	r5, [sp, #4]
 8002d0a:	9500      	str	r5, [sp, #0]
 8002d0c:	f7ff fd75 	bl	80027fa <menuItemInit>
 8002d10:	002b      	movs	r3, r5
 8002d12:	0020      	movs	r0, r4
 8002d14:	003a      	movs	r2, r7
 8002d16:	2104      	movs	r1, #4
 8002d18:	9501      	str	r5, [sp, #4]
 8002d1a:	9500      	str	r5, [sp, #0]
 8002d1c:	f7ff fd6d 	bl	80027fa <menuItemInit>
 8002d20:	002b      	movs	r3, r5
 8002d22:	0020      	movs	r0, r4
 8002d24:	003a      	movs	r2, r7
 8002d26:	2105      	movs	r1, #5
 8002d28:	9501      	str	r5, [sp, #4]
 8002d2a:	9500      	str	r5, [sp, #0]
 8002d2c:	f7ff fd65 	bl	80027fa <menuItemInit>
 8002d30:	2303      	movs	r3, #3
 8002d32:	2002      	movs	r0, #2
 8002d34:	003a      	movs	r2, r7
 8002d36:	2106      	movs	r1, #6
 8002d38:	9301      	str	r3, [sp, #4]
 8002d3a:	9000      	str	r0, [sp, #0]
 8002d3c:	002b      	movs	r3, r5
 8002d3e:	0020      	movs	r0, r4
 8002d40:	f7ff fd5b 	bl	80027fa <menuItemInit>
 8002d44:	2207      	movs	r2, #7
 8002d46:	2104      	movs	r1, #4
 8002d48:	002b      	movs	r3, r5
 8002d4a:	0020      	movs	r0, r4
 8002d4c:	9201      	str	r2, [sp, #4]
 8002d4e:	9100      	str	r1, [sp, #0]
 8002d50:	003a      	movs	r2, r7
 8002d52:	3103      	adds	r1, #3
 8002d54:	f7ff fd51 	bl	80027fa <menuItemInit>
 8002d58:	0020      	movs	r0, r4
 8002d5a:	003b      	movs	r3, r7
 8002d5c:	0032      	movs	r2, r6
 8002d5e:	0039      	movs	r1, r7
 8002d60:	9501      	str	r5, [sp, #4]
 8002d62:	9500      	str	r5, [sp, #0]
 8002d64:	f7ff fd49 	bl	80027fa <menuItemInit>
 8002d68:	0020      	movs	r0, r4
 8002d6a:	003b      	movs	r3, r7
 8002d6c:	0032      	movs	r2, r6
 8002d6e:	0031      	movs	r1, r6
 8002d70:	9501      	str	r5, [sp, #4]
 8002d72:	9500      	str	r5, [sp, #0]
 8002d74:	f7ff fd41 	bl	80027fa <menuItemInit>
 8002d78:	0020      	movs	r0, r4
 8002d7a:	2306      	movs	r3, #6
 8002d7c:	0032      	movs	r2, r6
 8002d7e:	2102      	movs	r1, #2
 8002d80:	9501      	str	r5, [sp, #4]
 8002d82:	9500      	str	r5, [sp, #0]
 8002d84:	f7ff fd39 	bl	80027fa <menuItemInit>
 8002d88:	0020      	movs	r0, r4
 8002d8a:	2306      	movs	r3, #6
 8002d8c:	0032      	movs	r2, r6
 8002d8e:	2103      	movs	r1, #3
 8002d90:	9501      	str	r5, [sp, #4]
 8002d92:	9500      	str	r5, [sp, #0]
 8002d94:	f7ff fd31 	bl	80027fa <menuItemInit>
 8002d98:	0020      	movs	r0, r4
 8002d9a:	2307      	movs	r3, #7
 8002d9c:	0032      	movs	r2, r6
 8002d9e:	2104      	movs	r1, #4
 8002da0:	9601      	str	r6, [sp, #4]
 8002da2:	9700      	str	r7, [sp, #0]
 8002da4:	f7ff fd29 	bl	80027fa <menuItemInit>
 8002da8:	2303      	movs	r3, #3
 8002daa:	2002      	movs	r0, #2
 8002dac:	0032      	movs	r2, r6
 8002dae:	2105      	movs	r1, #5
 8002db0:	9301      	str	r3, [sp, #4]
 8002db2:	9000      	str	r0, [sp, #0]
 8002db4:	3304      	adds	r3, #4
 8002db6:	0020      	movs	r0, r4
 8002db8:	f7ff fd1f 	bl	80027fa <menuItemInit>
 8002dbc:	0020      	movs	r0, r4
 8002dbe:	2307      	movs	r3, #7
 8002dc0:	0032      	movs	r2, r6
 8002dc2:	2106      	movs	r1, #6
 8002dc4:	9501      	str	r5, [sp, #4]
 8002dc6:	9500      	str	r5, [sp, #0]
 8002dc8:	f7ff fd17 	bl	80027fa <menuItemInit>
 8002dcc:	2307      	movs	r3, #7
 8002dce:	0020      	movs	r0, r4
 8002dd0:	0019      	movs	r1, r3
 8002dd2:	0032      	movs	r2, r6
 8002dd4:	9501      	str	r5, [sp, #4]
 8002dd6:	9500      	str	r5, [sp, #0]
 8002dd8:	f7ff fd0f 	bl	80027fa <menuItemInit>
 8002ddc:	0020      	movs	r0, r4
 8002dde:	2304      	movs	r3, #4
 8002de0:	2202      	movs	r2, #2
 8002de2:	0039      	movs	r1, r7
 8002de4:	9501      	str	r5, [sp, #4]
 8002de6:	9500      	str	r5, [sp, #0]
 8002de8:	f7ff fd07 	bl	80027fa <menuItemInit>
 8002dec:	0020      	movs	r0, r4
 8002dee:	2304      	movs	r3, #4
 8002df0:	2202      	movs	r2, #2
 8002df2:	0031      	movs	r1, r6
 8002df4:	9501      	str	r5, [sp, #4]
 8002df6:	9500      	str	r5, [sp, #0]
 8002df8:	f7ff fcff 	bl	80027fa <menuItemInit>
 8002dfc:	2202      	movs	r2, #2
 8002dfe:	0020      	movs	r0, r4
 8002e00:	0011      	movs	r1, r2
 8002e02:	2305      	movs	r3, #5
 8002e04:	9501      	str	r5, [sp, #4]
 8002e06:	9500      	str	r5, [sp, #0]
 8002e08:	f7ff fcf7 	bl	80027fa <menuItemInit>
 8002e0c:	0020      	movs	r0, r4
 8002e0e:	2305      	movs	r3, #5
 8002e10:	2202      	movs	r2, #2
 8002e12:	2103      	movs	r1, #3
 8002e14:	9501      	str	r5, [sp, #4]
 8002e16:	9500      	str	r5, [sp, #0]
 8002e18:	f7ff fcef 	bl	80027fa <menuItemInit>
 8002e1c:	0020      	movs	r0, r4
 8002e1e:	003a      	movs	r2, r7
 8002e20:	0039      	movs	r1, r7
 8002e22:	4b55      	ldr	r3, [pc, #340]	; (8002f78 <main+0x5a4>)
 8002e24:	9600      	str	r6, [sp, #0]
 8002e26:	f7ff fcd1 	bl	80027cc <menuItemChangeValue>
 8002e2a:	2104      	movs	r1, #4
 8002e2c:	000d      	movs	r5, r1
 8002e2e:	0020      	movs	r0, r4
 8002e30:	003a      	movs	r2, r7
 8002e32:	4b52      	ldr	r3, [pc, #328]	; (8002f7c <main+0x5a8>)
 8002e34:	9100      	str	r1, [sp, #0]
 8002e36:	0031      	movs	r1, r6
 8002e38:	f7ff fcc8 	bl	80027cc <menuItemChangeValue>
 8002e3c:	0029      	movs	r1, r5
 8002e3e:	0020      	movs	r0, r4
 8002e40:	003a      	movs	r2, r7
 8002e42:	4b4f      	ldr	r3, [pc, #316]	; (8002f80 <main+0x5ac>)
 8002e44:	9500      	str	r5, [sp, #0]
 8002e46:	3902      	subs	r1, #2
 8002e48:	f7ff fcc0 	bl	80027cc <menuItemChangeValue>
 8002e4c:	0029      	movs	r1, r5
 8002e4e:	0020      	movs	r0, r4
 8002e50:	003a      	movs	r2, r7
 8002e52:	4b4c      	ldr	r3, [pc, #304]	; (8002f84 <main+0x5b0>)
 8002e54:	9500      	str	r5, [sp, #0]
 8002e56:	3901      	subs	r1, #1
 8002e58:	f7ff fcb8 	bl	80027cc <menuItemChangeValue>
 8002e5c:	0029      	movs	r1, r5
 8002e5e:	0020      	movs	r0, r4
 8002e60:	003a      	movs	r2, r7
 8002e62:	4b49      	ldr	r3, [pc, #292]	; (8002f88 <main+0x5b4>)
 8002e64:	9500      	str	r5, [sp, #0]
 8002e66:	f7ff fcb1 	bl	80027cc <menuItemChangeValue>
 8002e6a:	0020      	movs	r0, r4
 8002e6c:	19a9      	adds	r1, r5, r6
 8002e6e:	003a      	movs	r2, r7
 8002e70:	4b46      	ldr	r3, [pc, #280]	; (8002f8c <main+0x5b8>)
 8002e72:	9500      	str	r5, [sp, #0]
 8002e74:	f7ff fcaa 	bl	80027cc <menuItemChangeValue>
 8002e78:	0020      	movs	r0, r4
 8002e7a:	003a      	movs	r2, r7
 8002e7c:	2106      	movs	r1, #6
 8002e7e:	4b44      	ldr	r3, [pc, #272]	; (8002f90 <main+0x5bc>)
 8002e80:	9600      	str	r6, [sp, #0]
 8002e82:	f7ff fca3 	bl	80027cc <menuItemChangeValue>
 8002e86:	0029      	movs	r1, r5
 8002e88:	0020      	movs	r0, r4
 8002e8a:	003a      	movs	r2, r7
 8002e8c:	4b41      	ldr	r3, [pc, #260]	; (8002f94 <main+0x5c0>)
 8002e8e:	9500      	str	r5, [sp, #0]
 8002e90:	3103      	adds	r1, #3
 8002e92:	f7ff fc9b 	bl	80027cc <menuItemChangeValue>
 8002e96:	0020      	movs	r0, r4
 8002e98:	0032      	movs	r2, r6
 8002e9a:	0039      	movs	r1, r7
 8002e9c:	4b3e      	ldr	r3, [pc, #248]	; (8002f98 <main+0x5c4>)
 8002e9e:	9700      	str	r7, [sp, #0]
 8002ea0:	f7ff fc94 	bl	80027cc <menuItemChangeValue>
 8002ea4:	4d3d      	ldr	r5, [pc, #244]	; (8002f9c <main+0x5c8>)
 8002ea6:	0020      	movs	r0, r4
 8002ea8:	002b      	movs	r3, r5
 8002eaa:	0032      	movs	r2, r6
 8002eac:	0031      	movs	r1, r6
 8002eae:	9700      	str	r7, [sp, #0]
 8002eb0:	f7ff fc8c 	bl	80027cc <menuItemChangeValue>
 8002eb4:	2104      	movs	r1, #4
 8002eb6:	0020      	movs	r0, r4
 8002eb8:	0032      	movs	r2, r6
 8002eba:	4b39      	ldr	r3, [pc, #228]	; (8002fa0 <main+0x5cc>)
 8002ebc:	9100      	str	r1, [sp, #0]
 8002ebe:	3902      	subs	r1, #2
 8002ec0:	f7ff fc84 	bl	80027cc <menuItemChangeValue>
 8002ec4:	0020      	movs	r0, r4
 8002ec6:	0032      	movs	r2, r6
 8002ec8:	2103      	movs	r1, #3
 8002eca:	4b36      	ldr	r3, [pc, #216]	; (8002fa4 <main+0x5d0>)
 8002ecc:	9600      	str	r6, [sp, #0]
 8002ece:	f7ff fc7d 	bl	80027cc <menuItemChangeValue>
 8002ed2:	2104      	movs	r1, #4
 8002ed4:	0020      	movs	r0, r4
 8002ed6:	0032      	movs	r2, r6
 8002ed8:	4b33      	ldr	r3, [pc, #204]	; (8002fa8 <main+0x5d4>)
 8002eda:	9100      	str	r1, [sp, #0]
 8002edc:	f7ff fc76 	bl	80027cc <menuItemChangeValue>
 8002ee0:	2104      	movs	r1, #4
 8002ee2:	0020      	movs	r0, r4
 8002ee4:	0032      	movs	r2, r6
 8002ee6:	4b31      	ldr	r3, [pc, #196]	; (8002fac <main+0x5d8>)
 8002ee8:	9100      	str	r1, [sp, #0]
 8002eea:	1989      	adds	r1, r1, r6
 8002eec:	f7ff fc6e 	bl	80027cc <menuItemChangeValue>
 8002ef0:	2104      	movs	r1, #4
 8002ef2:	0020      	movs	r0, r4
 8002ef4:	0032      	movs	r2, r6
 8002ef6:	4b2e      	ldr	r3, [pc, #184]	; (8002fb0 <main+0x5dc>)
 8002ef8:	9100      	str	r1, [sp, #0]
 8002efa:	3102      	adds	r1, #2
 8002efc:	f7ff fc66 	bl	80027cc <menuItemChangeValue>
 8002f00:	2104      	movs	r1, #4
 8002f02:	0020      	movs	r0, r4
 8002f04:	0032      	movs	r2, r6
 8002f06:	4b2b      	ldr	r3, [pc, #172]	; (8002fb4 <main+0x5e0>)
 8002f08:	9100      	str	r1, [sp, #0]
 8002f0a:	3103      	adds	r1, #3
 8002f0c:	f7ff fc5e 	bl	80027cc <menuItemChangeValue>
 8002f10:	0020      	movs	r0, r4
 8002f12:	2202      	movs	r2, #2
 8002f14:	0039      	movs	r1, r7
 8002f16:	4b18      	ldr	r3, [pc, #96]	; (8002f78 <main+0x5a4>)
 8002f18:	9600      	str	r6, [sp, #0]
 8002f1a:	f7ff fc57 	bl	80027cc <menuItemChangeValue>
 8002f1e:	0020      	movs	r0, r4
 8002f20:	002b      	movs	r3, r5
 8002f22:	2202      	movs	r2, #2
 8002f24:	0031      	movs	r1, r6
 8002f26:	9700      	str	r7, [sp, #0]
 8002f28:	f7ff fc50 	bl	80027cc <menuItemChangeValue>
 8002f2c:	2202      	movs	r2, #2
 8002f2e:	0020      	movs	r0, r4
 8002f30:	0011      	movs	r1, r2
 8002f32:	4b19      	ldr	r3, [pc, #100]	; (8002f98 <main+0x5c4>)
 8002f34:	9700      	str	r7, [sp, #0]
 8002f36:	f7ff fc49 	bl	80027cc <menuItemChangeValue>
 8002f3a:	2104      	movs	r1, #4
 8002f3c:	0020      	movs	r0, r4
 8002f3e:	2202      	movs	r2, #2
 8002f40:	4b1d      	ldr	r3, [pc, #116]	; (8002fb8 <main+0x5e4>)
 8002f42:	9100      	str	r1, [sp, #0]
 8002f44:	3901      	subs	r1, #1
 8002f46:	f7ff fc41 	bl	80027cc <menuItemChangeValue>
 8002f4a:	0020      	movs	r0, r4
 8002f4c:	2480      	movs	r4, #128	; 0x80
 8002f4e:	f7ff fc36 	bl	80027be <menuInit>
 8002f52:	01e4      	lsls	r4, r4, #7
 8002f54:	0030      	movs	r0, r6
 8002f56:	f7fd fbcd 	bl	80006f4 <HAL_Delay>
 8002f5a:	0031      	movs	r1, r6
 8002f5c:	0020      	movs	r0, r4
 8002f5e:	f7fe f807 	bl	8000f70 <HAL_PWR_EnterSTOPMode>
 8002f62:	e7f7      	b.n	8002f54 <main+0x580>
 8002f64:	50000400 	.word	0x50000400
 8002f68:	20000178 	.word	0x20000178
 8002f6c:	50000800 	.word	0x50000800
 8002f70:	08003517 	.word	0x08003517
 8002f74:	20000030 	.word	0x20000030
 8002f78:	080034d0 	.word	0x080034d0
 8002f7c:	080034d5 	.word	0x080034d5
 8002f80:	080034da 	.word	0x080034da
 8002f84:	080034df 	.word	0x080034df
 8002f88:	080034e4 	.word	0x080034e4
 8002f8c:	080034e9 	.word	0x080034e9
 8002f90:	080034ee 	.word	0x080034ee
 8002f94:	080034f3 	.word	0x080034f3
 8002f98:	080034f7 	.word	0x080034f7
 8002f9c:	080034fc 	.word	0x080034fc
 8002fa0:	08003501 	.word	0x08003501
 8002fa4:	08003506 	.word	0x08003506
 8002fa8:	0800350b 	.word	0x0800350b
 8002fac:	08003510 	.word	0x08003510
 8002fb0:	08003515 	.word	0x08003515
 8002fb4:	0800351a 	.word	0x0800351a
 8002fb8:	0800351f 	.word	0x0800351f

08002fbc <HAL_TIM_PeriodElapsedCallback>:
 8002fbc:	4b04      	ldr	r3, [pc, #16]	; (8002fd0 <HAL_TIM_PeriodElapsedCallback+0x14>)
 8002fbe:	6802      	ldr	r2, [r0, #0]
 8002fc0:	b510      	push	{r4, lr}
 8002fc2:	429a      	cmp	r2, r3
 8002fc4:	d102      	bne.n	8002fcc <HAL_TIM_PeriodElapsedCallback+0x10>
 8002fc6:	4803      	ldr	r0, [pc, #12]	; (8002fd4 <HAL_TIM_PeriodElapsedCallback+0x18>)
 8002fc8:	f7ff f9a4 	bl	8002314 <LEDmultiplexing>
 8002fcc:	bd10      	pop	{r4, pc}
 8002fce:	46c0      	nop			; (mov r8, r8)
 8002fd0:	40012c00 	.word	0x40012c00
 8002fd4:	20000178 	.word	0x20000178

08002fd8 <encoderAction>:
 8002fd8:	b570      	push	{r4, r5, r6, lr}
 8002fda:	0004      	movs	r4, r0
 8002fdc:	2802      	cmp	r0, #2
 8002fde:	d113      	bne.n	8003008 <encoderAction+0x30>
 8002fe0:	4c29      	ldr	r4, [pc, #164]	; (8003088 <encoderAction+0xb0>)
 8002fe2:	2100      	movs	r1, #0
 8002fe4:	0020      	movs	r0, r4
 8002fe6:	f7ff fc19 	bl	800281c <menuSwitch>
 8002fea:	2800      	cmp	r0, #0
 8002fec:	d00b      	beq.n	8003006 <encoderAction+0x2e>
 8002fee:	2301      	movs	r3, #1
 8002ff0:	4d26      	ldr	r5, [pc, #152]	; (800308c <encoderAction+0xb4>)
 8002ff2:	2100      	movs	r1, #0
 8002ff4:	0028      	movs	r0, r5
 8002ff6:	4a26      	ldr	r2, [pc, #152]	; (8003090 <encoderAction+0xb8>)
 8002ff8:	34f4      	adds	r4, #244	; 0xf4
 8002ffa:	f7ff fbc7 	bl	800278c <LEDstr>
 8002ffe:	0028      	movs	r0, r5
 8003000:	7821      	ldrb	r1, [r4, #0]
 8003002:	f7ff fbd9 	bl	80027b8 <LEDdot>
 8003006:	bd70      	pop	{r4, r5, r6, pc}
 8003008:	2803      	cmp	r0, #3
 800300a:	d01a      	beq.n	8003042 <encoderAction+0x6a>
 800300c:	2800      	cmp	r0, #0
 800300e:	d022      	beq.n	8003056 <encoderAction+0x7e>
 8003010:	2801      	cmp	r0, #1
 8003012:	d1f8      	bne.n	8003006 <encoderAction+0x2e>
 8003014:	4c1c      	ldr	r4, [pc, #112]	; (8003088 <encoderAction+0xb0>)
 8003016:	2103      	movs	r1, #3
 8003018:	0020      	movs	r0, r4
 800301a:	f7ff fbff 	bl	800281c <menuSwitch>
 800301e:	2800      	cmp	r0, #0
 8003020:	d00b      	beq.n	800303a <encoderAction+0x62>
 8003022:	4d1a      	ldr	r5, [pc, #104]	; (800308c <encoderAction+0xb4>)
 8003024:	2100      	movs	r1, #0
 8003026:	0028      	movs	r0, r5
 8003028:	2302      	movs	r3, #2
 800302a:	4a19      	ldr	r2, [pc, #100]	; (8003090 <encoderAction+0xb8>)
 800302c:	34f4      	adds	r4, #244	; 0xf4
 800302e:	f7ff fbad 	bl	800278c <LEDstr>
 8003032:	0028      	movs	r0, r5
 8003034:	7821      	ldrb	r1, [r4, #0]
 8003036:	f7ff fbbf 	bl	80027b8 <LEDdot>
 800303a:	4a16      	ldr	r2, [pc, #88]	; (8003094 <encoderAction+0xbc>)
 800303c:	8813      	ldrh	r3, [r2, #0]
 800303e:	3301      	adds	r3, #1
 8003040:	e01f      	b.n	8003082 <encoderAction+0xaa>
 8003042:	4c11      	ldr	r4, [pc, #68]	; (8003088 <encoderAction+0xb0>)
 8003044:	2101      	movs	r1, #1
 8003046:	0020      	movs	r0, r4
 8003048:	f7ff fbe8 	bl	800281c <menuSwitch>
 800304c:	2800      	cmp	r0, #0
 800304e:	d0da      	beq.n	8003006 <encoderAction+0x2e>
 8003050:	2302      	movs	r3, #2
 8003052:	4d0e      	ldr	r5, [pc, #56]	; (800308c <encoderAction+0xb4>)
 8003054:	e7cd      	b.n	8002ff2 <encoderAction+0x1a>
 8003056:	4d0c      	ldr	r5, [pc, #48]	; (8003088 <encoderAction+0xb0>)
 8003058:	2102      	movs	r1, #2
 800305a:	0028      	movs	r0, r5
 800305c:	f7ff fbde 	bl	800281c <menuSwitch>
 8003060:	2800      	cmp	r0, #0
 8003062:	d00b      	beq.n	800307c <encoderAction+0xa4>
 8003064:	4e09      	ldr	r6, [pc, #36]	; (800308c <encoderAction+0xb4>)
 8003066:	0021      	movs	r1, r4
 8003068:	0030      	movs	r0, r6
 800306a:	2301      	movs	r3, #1
 800306c:	4a08      	ldr	r2, [pc, #32]	; (8003090 <encoderAction+0xb8>)
 800306e:	35f4      	adds	r5, #244	; 0xf4
 8003070:	f7ff fb8c 	bl	800278c <LEDstr>
 8003074:	0030      	movs	r0, r6
 8003076:	7829      	ldrb	r1, [r5, #0]
 8003078:	f7ff fb9e 	bl	80027b8 <LEDdot>
 800307c:	4a05      	ldr	r2, [pc, #20]	; (8003094 <encoderAction+0xbc>)
 800307e:	8813      	ldrh	r3, [r2, #0]
 8003080:	3b01      	subs	r3, #1
 8003082:	b29b      	uxth	r3, r3
 8003084:	8013      	strh	r3, [r2, #0]
 8003086:	e7be      	b.n	8003006 <encoderAction+0x2e>
 8003088:	20000030 	.word	0x20000030
 800308c:	20000178 	.word	0x20000178
 8003090:	20000120 	.word	0x20000120
 8003094:	20000008 	.word	0x20000008

08003098 <HAL_GPIO_EXTI_Falling_Callback>:
 8003098:	b570      	push	{r4, r5, r6, lr}
 800309a:	0004      	movs	r4, r0
 800309c:	2880      	cmp	r0, #128	; 0x80
 800309e:	d10e      	bne.n	80030be <HAL_GPIO_EXTI_Falling_Callback+0x26>
 80030a0:	0001      	movs	r1, r0
 80030a2:	4812      	ldr	r0, [pc, #72]	; (80030ec <HAL_GPIO_EXTI_Falling_Callback+0x54>)
 80030a4:	f7fd fea4 	bl	8000df0 <HAL_GPIO_ReadPin>
 80030a8:	2140      	movs	r1, #64	; 0x40
 80030aa:	0004      	movs	r4, r0
 80030ac:	480f      	ldr	r0, [pc, #60]	; (80030ec <HAL_GPIO_EXTI_Falling_Callback+0x54>)
 80030ae:	f7fd fe9f 	bl	8000df0 <HAL_GPIO_ReadPin>
 80030b2:	4284      	cmp	r4, r0
 80030b4:	d002      	beq.n	80030bc <HAL_GPIO_EXTI_Falling_Callback+0x24>
 80030b6:	2000      	movs	r0, #0
 80030b8:	f7ff ff8e 	bl	8002fd8 <encoderAction>
 80030bc:	bd70      	pop	{r4, r5, r6, pc}
 80030be:	2840      	cmp	r0, #64	; 0x40
 80030c0:	d003      	beq.n	80030ca <HAL_GPIO_EXTI_Falling_Callback+0x32>
 80030c2:	2820      	cmp	r0, #32
 80030c4:	d10e      	bne.n	80030e4 <HAL_GPIO_EXTI_Falling_Callback+0x4c>
 80030c6:	2002      	movs	r0, #2
 80030c8:	e7f6      	b.n	80030b8 <HAL_GPIO_EXTI_Falling_Callback+0x20>
 80030ca:	2180      	movs	r1, #128	; 0x80
 80030cc:	4807      	ldr	r0, [pc, #28]	; (80030ec <HAL_GPIO_EXTI_Falling_Callback+0x54>)
 80030ce:	f7fd fe8f 	bl	8000df0 <HAL_GPIO_ReadPin>
 80030d2:	0021      	movs	r1, r4
 80030d4:	0005      	movs	r5, r0
 80030d6:	4805      	ldr	r0, [pc, #20]	; (80030ec <HAL_GPIO_EXTI_Falling_Callback+0x54>)
 80030d8:	f7fd fe8a 	bl	8000df0 <HAL_GPIO_ReadPin>
 80030dc:	4285      	cmp	r5, r0
 80030de:	d0ed      	beq.n	80030bc <HAL_GPIO_EXTI_Falling_Callback+0x24>
 80030e0:	2001      	movs	r0, #1
 80030e2:	e7e9      	b.n	80030b8 <HAL_GPIO_EXTI_Falling_Callback+0x20>
 80030e4:	2003      	movs	r0, #3
 80030e6:	2c10      	cmp	r4, #16
 80030e8:	d0e6      	beq.n	80030b8 <HAL_GPIO_EXTI_Falling_Callback+0x20>
 80030ea:	e7e7      	b.n	80030bc <HAL_GPIO_EXTI_Falling_Callback+0x24>
 80030ec:	50000400 	.word	0x50000400

080030f0 <HAL_GPIO_EXTI_Rising_Callback>:
 80030f0:	b570      	push	{r4, r5, r6, lr}
 80030f2:	0004      	movs	r4, r0
 80030f4:	2880      	cmp	r0, #128	; 0x80
 80030f6:	d10e      	bne.n	8003116 <HAL_GPIO_EXTI_Rising_Callback+0x26>
 80030f8:	0001      	movs	r1, r0
 80030fa:	480e      	ldr	r0, [pc, #56]	; (8003134 <HAL_GPIO_EXTI_Rising_Callback+0x44>)
 80030fc:	f7fd fe78 	bl	8000df0 <HAL_GPIO_ReadPin>
 8003100:	2140      	movs	r1, #64	; 0x40
 8003102:	0004      	movs	r4, r0
 8003104:	480b      	ldr	r0, [pc, #44]	; (8003134 <HAL_GPIO_EXTI_Rising_Callback+0x44>)
 8003106:	f7fd fe73 	bl	8000df0 <HAL_GPIO_ReadPin>
 800310a:	4284      	cmp	r4, r0
 800310c:	d002      	beq.n	8003114 <HAL_GPIO_EXTI_Rising_Callback+0x24>
 800310e:	2000      	movs	r0, #0
 8003110:	f7ff ff62 	bl	8002fd8 <encoderAction>
 8003114:	bd70      	pop	{r4, r5, r6, pc}
 8003116:	2840      	cmp	r0, #64	; 0x40
 8003118:	d1fc      	bne.n	8003114 <HAL_GPIO_EXTI_Rising_Callback+0x24>
 800311a:	2180      	movs	r1, #128	; 0x80
 800311c:	4805      	ldr	r0, [pc, #20]	; (8003134 <HAL_GPIO_EXTI_Rising_Callback+0x44>)
 800311e:	f7fd fe67 	bl	8000df0 <HAL_GPIO_ReadPin>
 8003122:	0021      	movs	r1, r4
 8003124:	0005      	movs	r5, r0
 8003126:	4803      	ldr	r0, [pc, #12]	; (8003134 <HAL_GPIO_EXTI_Rising_Callback+0x44>)
 8003128:	f7fd fe62 	bl	8000df0 <HAL_GPIO_ReadPin>
 800312c:	4285      	cmp	r5, r0
 800312e:	d0f1      	beq.n	8003114 <HAL_GPIO_EXTI_Rising_Callback+0x24>
 8003130:	2001      	movs	r0, #1
 8003132:	e7ed      	b.n	8003110 <HAL_GPIO_EXTI_Rising_Callback+0x20>
 8003134:	50000400 	.word	0x50000400

08003138 <Error_Handler>:
 8003138:	b672      	cpsid	i
 800313a:	e7fe      	b.n	800313a <Error_Handler+0x2>

0800313c <HAL_MspInit>:
 800313c:	b507      	push	{r0, r1, r2, lr}
 800313e:	2001      	movs	r0, #1
 8003140:	4b0a      	ldr	r3, [pc, #40]	; (800316c <HAL_MspInit+0x30>)
 8003142:	6c19      	ldr	r1, [r3, #64]	; 0x40
 8003144:	4301      	orrs	r1, r0
 8003146:	6419      	str	r1, [r3, #64]	; 0x40
 8003148:	2180      	movs	r1, #128	; 0x80
 800314a:	6c1a      	ldr	r2, [r3, #64]	; 0x40
 800314c:	0549      	lsls	r1, r1, #21
 800314e:	4002      	ands	r2, r0
 8003150:	9200      	str	r2, [sp, #0]
 8003152:	9a00      	ldr	r2, [sp, #0]
 8003154:	6bda      	ldr	r2, [r3, #60]	; 0x3c
 8003156:	307f      	adds	r0, #127	; 0x7f
 8003158:	430a      	orrs	r2, r1
 800315a:	63da      	str	r2, [r3, #60]	; 0x3c
 800315c:	6bdb      	ldr	r3, [r3, #60]	; 0x3c
 800315e:	0080      	lsls	r0, r0, #2
 8003160:	400b      	ands	r3, r1
 8003162:	9301      	str	r3, [sp, #4]
 8003164:	9b01      	ldr	r3, [sp, #4]
 8003166:	f7fd fad7 	bl	8000718 <HAL_SYSCFG_StrobeDBattpinsConfig>
 800316a:	bd07      	pop	{r0, r1, r2, pc}
 800316c:	40021000 	.word	0x40021000

08003170 <HAL_ADC_MspInit>:
 8003170:	b510      	push	{r4, lr}
 8003172:	0004      	movs	r4, r0
 8003174:	b094      	sub	sp, #80	; 0x50
 8003176:	2214      	movs	r2, #20
 8003178:	2100      	movs	r1, #0
 800317a:	a802      	add	r0, sp, #8
 800317c:	f000 f977 	bl	800346e <memset>
 8003180:	2234      	movs	r2, #52	; 0x34
 8003182:	2100      	movs	r1, #0
 8003184:	a807      	add	r0, sp, #28
 8003186:	f000 f972 	bl	800346e <memset>
 800318a:	4b17      	ldr	r3, [pc, #92]	; (80031e8 <HAL_ADC_MspInit+0x78>)
 800318c:	6822      	ldr	r2, [r4, #0]
 800318e:	429a      	cmp	r2, r3
 8003190:	d127      	bne.n	80031e2 <HAL_ADC_MspInit+0x72>
 8003192:	2380      	movs	r3, #128	; 0x80
 8003194:	01db      	lsls	r3, r3, #7
 8003196:	9307      	str	r3, [sp, #28]
 8003198:	2300      	movs	r3, #0
 800319a:	a807      	add	r0, sp, #28
 800319c:	930f      	str	r3, [sp, #60]	; 0x3c
 800319e:	f7fe fa61 	bl	8001664 <HAL_RCCEx_PeriphCLKConfig>
 80031a2:	2800      	cmp	r0, #0
 80031a4:	d001      	beq.n	80031aa <HAL_ADC_MspInit+0x3a>
 80031a6:	f7ff ffc7 	bl	8003138 <Error_Handler>
 80031aa:	2080      	movs	r0, #128	; 0x80
 80031ac:	4b0f      	ldr	r3, [pc, #60]	; (80031ec <HAL_ADC_MspInit+0x7c>)
 80031ae:	0340      	lsls	r0, r0, #13
 80031b0:	6c19      	ldr	r1, [r3, #64]	; 0x40
 80031b2:	4301      	orrs	r1, r0
 80031b4:	6419      	str	r1, [r3, #64]	; 0x40
 80031b6:	6c1a      	ldr	r2, [r3, #64]	; 0x40
 80031b8:	4002      	ands	r2, r0
 80031ba:	9200      	str	r2, [sp, #0]
 80031bc:	9a00      	ldr	r2, [sp, #0]
 80031be:	2201      	movs	r2, #1
 80031c0:	6b59      	ldr	r1, [r3, #52]	; 0x34
 80031c2:	20a0      	movs	r0, #160	; 0xa0
 80031c4:	4311      	orrs	r1, r2
 80031c6:	6359      	str	r1, [r3, #52]	; 0x34
 80031c8:	6b5b      	ldr	r3, [r3, #52]	; 0x34
 80031ca:	a902      	add	r1, sp, #8
 80031cc:	4013      	ands	r3, r2
 80031ce:	9301      	str	r3, [sp, #4]
 80031d0:	9b01      	ldr	r3, [sp, #4]
 80031d2:	2303      	movs	r3, #3
 80031d4:	9303      	str	r3, [sp, #12]
 80031d6:	2300      	movs	r3, #0
 80031d8:	05c0      	lsls	r0, r0, #23
 80031da:	9202      	str	r2, [sp, #8]
 80031dc:	9304      	str	r3, [sp, #16]
 80031de:	f7fd fd59 	bl	8000c94 <HAL_GPIO_Init>
 80031e2:	b014      	add	sp, #80	; 0x50
 80031e4:	bd10      	pop	{r4, pc}
 80031e6:	46c0      	nop			; (mov r8, r8)
 80031e8:	40012400 	.word	0x40012400
 80031ec:	40021000 	.word	0x40021000

080031f0 <HAL_I2C_MspInit>:
 80031f0:	b510      	push	{r4, lr}
 80031f2:	0004      	movs	r4, r0
 80031f4:	b094      	sub	sp, #80	; 0x50
 80031f6:	2214      	movs	r2, #20
 80031f8:	2100      	movs	r1, #0
 80031fa:	a802      	add	r0, sp, #8
 80031fc:	f000 f937 	bl	800346e <memset>
 8003200:	2234      	movs	r2, #52	; 0x34
 8003202:	2100      	movs	r1, #0
 8003204:	a807      	add	r0, sp, #28
 8003206:	f000 f932 	bl	800346e <memset>
 800320a:	4b18      	ldr	r3, [pc, #96]	; (800326c <HAL_I2C_MspInit+0x7c>)
 800320c:	6822      	ldr	r2, [r4, #0]
 800320e:	429a      	cmp	r2, r3
 8003210:	d12a      	bne.n	8003268 <HAL_I2C_MspInit+0x78>
 8003212:	2320      	movs	r3, #32
 8003214:	9307      	str	r3, [sp, #28]
 8003216:	2300      	movs	r3, #0
 8003218:	a807      	add	r0, sp, #28
 800321a:	930b      	str	r3, [sp, #44]	; 0x2c
 800321c:	f7fe fa22 	bl	8001664 <HAL_RCCEx_PeriphCLKConfig>
 8003220:	2800      	cmp	r0, #0
 8003222:	d001      	beq.n	8003228 <HAL_I2C_MspInit+0x38>
 8003224:	f7ff ff88 	bl	8003138 <Error_Handler>
 8003228:	2102      	movs	r1, #2
 800322a:	4c11      	ldr	r4, [pc, #68]	; (8003270 <HAL_I2C_MspInit+0x80>)
 800322c:	4811      	ldr	r0, [pc, #68]	; (8003274 <HAL_I2C_MspInit+0x84>)
 800322e:	6b62      	ldr	r2, [r4, #52]	; 0x34
 8003230:	430a      	orrs	r2, r1
 8003232:	6362      	str	r2, [r4, #52]	; 0x34
 8003234:	6b63      	ldr	r3, [r4, #52]	; 0x34
 8003236:	400b      	ands	r3, r1
 8003238:	9300      	str	r3, [sp, #0]
 800323a:	9b00      	ldr	r3, [sp, #0]
 800323c:	23c0      	movs	r3, #192	; 0xc0
 800323e:	009b      	lsls	r3, r3, #2
 8003240:	9302      	str	r3, [sp, #8]
 8003242:	2312      	movs	r3, #18
 8003244:	9303      	str	r3, [sp, #12]
 8003246:	2300      	movs	r3, #0
 8003248:	a902      	add	r1, sp, #8
 800324a:	9304      	str	r3, [sp, #16]
 800324c:	9305      	str	r3, [sp, #20]
 800324e:	3306      	adds	r3, #6
 8003250:	9306      	str	r3, [sp, #24]
 8003252:	f7fd fd1f 	bl	8000c94 <HAL_GPIO_Init>
 8003256:	2180      	movs	r1, #128	; 0x80
 8003258:	6be2      	ldr	r2, [r4, #60]	; 0x3c
 800325a:	0389      	lsls	r1, r1, #14
 800325c:	430a      	orrs	r2, r1
 800325e:	63e2      	str	r2, [r4, #60]	; 0x3c
 8003260:	6be3      	ldr	r3, [r4, #60]	; 0x3c
 8003262:	400b      	ands	r3, r1
 8003264:	9301      	str	r3, [sp, #4]
 8003266:	9b01      	ldr	r3, [sp, #4]
 8003268:	b014      	add	sp, #80	; 0x50
 800326a:	bd10      	pop	{r4, pc}
 800326c:	40005400 	.word	0x40005400
 8003270:	40021000 	.word	0x40021000
 8003274:	50000400 	.word	0x50000400

08003278 <HAL_TIM_Base_MspInit>:
 8003278:	b510      	push	{r4, lr}
 800327a:	0004      	movs	r4, r0
 800327c:	b08e      	sub	sp, #56	; 0x38
 800327e:	2234      	movs	r2, #52	; 0x34
 8003280:	2100      	movs	r1, #0
 8003282:	a801      	add	r0, sp, #4
 8003284:	f000 f8f3 	bl	800346e <memset>
 8003288:	4b15      	ldr	r3, [pc, #84]	; (80032e0 <HAL_TIM_Base_MspInit+0x68>)
 800328a:	6822      	ldr	r2, [r4, #0]
 800328c:	429a      	cmp	r2, r3
 800328e:	d125      	bne.n	80032dc <HAL_TIM_Base_MspInit+0x64>
 8003290:	2380      	movs	r3, #128	; 0x80
 8003292:	039b      	lsls	r3, r3, #14
 8003294:	9301      	str	r3, [sp, #4]
 8003296:	2300      	movs	r3, #0
 8003298:	a801      	add	r0, sp, #4
 800329a:	930b      	str	r3, [sp, #44]	; 0x2c
 800329c:	f7fe f9e2 	bl	8001664 <HAL_RCCEx_PeriphCLKConfig>
 80032a0:	2800      	cmp	r0, #0
 80032a2:	d001      	beq.n	80032a8 <HAL_TIM_Base_MspInit+0x30>
 80032a4:	f7ff ff48 	bl	8003138 <Error_Handler>
 80032a8:	2080      	movs	r0, #128	; 0x80
 80032aa:	4a0e      	ldr	r2, [pc, #56]	; (80032e4 <HAL_TIM_Base_MspInit+0x6c>)
 80032ac:	0100      	lsls	r0, r0, #4
 80032ae:	6c11      	ldr	r1, [r2, #64]	; 0x40
 80032b0:	4301      	orrs	r1, r0
 80032b2:	6411      	str	r1, [r2, #64]	; 0x40
 80032b4:	6c13      	ldr	r3, [r2, #64]	; 0x40
 80032b6:	2200      	movs	r2, #0
 80032b8:	4003      	ands	r3, r0
 80032ba:	0011      	movs	r1, r2
 80032bc:	200d      	movs	r0, #13
 80032be:	9300      	str	r3, [sp, #0]
 80032c0:	9b00      	ldr	r3, [sp, #0]
 80032c2:	f7fd fc97 	bl	8000bf4 <HAL_NVIC_SetPriority>
 80032c6:	200d      	movs	r0, #13
 80032c8:	f7fd fcbe 	bl	8000c48 <HAL_NVIC_EnableIRQ>
 80032cc:	2200      	movs	r2, #0
 80032ce:	200e      	movs	r0, #14
 80032d0:	0011      	movs	r1, r2
 80032d2:	f7fd fc8f 	bl	8000bf4 <HAL_NVIC_SetPriority>
 80032d6:	200e      	movs	r0, #14
 80032d8:	f7fd fcb6 	bl	8000c48 <HAL_NVIC_EnableIRQ>
 80032dc:	b00e      	add	sp, #56	; 0x38
 80032de:	bd10      	pop	{r4, pc}
 80032e0:	40012c00 	.word	0x40012c00
 80032e4:	40021000 	.word	0x40021000

080032e8 <HAL_UART_MspInit>:
 80032e8:	b510      	push	{r4, lr}
 80032ea:	0004      	movs	r4, r0
 80032ec:	b094      	sub	sp, #80	; 0x50
 80032ee:	2214      	movs	r2, #20
 80032f0:	2100      	movs	r1, #0
 80032f2:	a802      	add	r0, sp, #8
 80032f4:	f000 f8bb 	bl	800346e <memset>
 80032f8:	2234      	movs	r2, #52	; 0x34
 80032fa:	2100      	movs	r1, #0
 80032fc:	a807      	add	r0, sp, #28
 80032fe:	f000 f8b6 	bl	800346e <memset>
 8003302:	4b18      	ldr	r3, [pc, #96]	; (8003364 <HAL_UART_MspInit+0x7c>)
 8003304:	6822      	ldr	r2, [r4, #0]
 8003306:	429a      	cmp	r2, r3
 8003308:	d129      	bne.n	800335e <HAL_UART_MspInit+0x76>
 800330a:	2302      	movs	r3, #2
 800330c:	9307      	str	r3, [sp, #28]
 800330e:	2300      	movs	r3, #0
 8003310:	a807      	add	r0, sp, #28
 8003312:	9309      	str	r3, [sp, #36]	; 0x24
 8003314:	f7fe f9a6 	bl	8001664 <HAL_RCCEx_PeriphCLKConfig>
 8003318:	2800      	cmp	r0, #0
 800331a:	d001      	beq.n	8003320 <HAL_UART_MspInit+0x38>
 800331c:	f7ff ff0c 	bl	8003138 <Error_Handler>
 8003320:	2080      	movs	r0, #128	; 0x80
 8003322:	4b11      	ldr	r3, [pc, #68]	; (8003368 <HAL_UART_MspInit+0x80>)
 8003324:	0280      	lsls	r0, r0, #10
 8003326:	6bd9      	ldr	r1, [r3, #60]	; 0x3c
 8003328:	4301      	orrs	r1, r0
 800332a:	63d9      	str	r1, [r3, #60]	; 0x3c
 800332c:	6bda      	ldr	r2, [r3, #60]	; 0x3c
 800332e:	4002      	ands	r2, r0
 8003330:	9200      	str	r2, [sp, #0]
 8003332:	9a00      	ldr	r2, [sp, #0]
 8003334:	2201      	movs	r2, #1
 8003336:	6b59      	ldr	r1, [r3, #52]	; 0x34
 8003338:	20a0      	movs	r0, #160	; 0xa0
 800333a:	4311      	orrs	r1, r2
 800333c:	6359      	str	r1, [r3, #52]	; 0x34
 800333e:	6b5b      	ldr	r3, [r3, #52]	; 0x34
 8003340:	a902      	add	r1, sp, #8
 8003342:	4013      	ands	r3, r2
 8003344:	9301      	str	r3, [sp, #4]
 8003346:	9b01      	ldr	r3, [sp, #4]
 8003348:	230c      	movs	r3, #12
 800334a:	9302      	str	r3, [sp, #8]
 800334c:	3b0a      	subs	r3, #10
 800334e:	9303      	str	r3, [sp, #12]
 8003350:	2300      	movs	r3, #0
 8003352:	05c0      	lsls	r0, r0, #23
 8003354:	9304      	str	r3, [sp, #16]
 8003356:	9305      	str	r3, [sp, #20]
 8003358:	9206      	str	r2, [sp, #24]
 800335a:	f7fd fc9b 	bl	8000c94 <HAL_GPIO_Init>
 800335e:	b014      	add	sp, #80	; 0x50
 8003360:	bd10      	pop	{r4, pc}
 8003362:	46c0      	nop			; (mov r8, r8)
 8003364:	40004400 	.word	0x40004400
 8003368:	40021000 	.word	0x40021000

0800336c <NMI_Handler>:
 800336c:	e7fe      	b.n	800336c <NMI_Handler>

0800336e <HardFault_Handler>:
 800336e:	e7fe      	b.n	800336e <HardFault_Handler>

08003370 <SVC_Handler>:
 8003370:	4770      	bx	lr

08003372 <PendSV_Handler>:
 8003372:	4770      	bx	lr

08003374 <SysTick_Handler>:
 8003374:	b510      	push	{r4, lr}
 8003376:	f7fd f9ab 	bl	80006d0 <HAL_IncTick>
 800337a:	bd10      	pop	{r4, pc}

0800337c <EXTI2_3_IRQHandler>:
 800337c:	b510      	push	{r4, lr}
 800337e:	2008      	movs	r0, #8
 8003380:	f7fd fd42 	bl	8000e08 <HAL_GPIO_EXTI_IRQHandler>
 8003384:	bd10      	pop	{r4, pc}

08003386 <EXTI4_15_IRQHandler>:
 8003386:	b510      	push	{r4, lr}
 8003388:	2010      	movs	r0, #16
 800338a:	f7fd fd3d 	bl	8000e08 <HAL_GPIO_EXTI_IRQHandler>
 800338e:	2020      	movs	r0, #32
 8003390:	f7fd fd3a 	bl	8000e08 <HAL_GPIO_EXTI_IRQHandler>
 8003394:	2040      	movs	r0, #64	; 0x40
 8003396:	f7fd fd37 	bl	8000e08 <HAL_GPIO_EXTI_IRQHandler>
 800339a:	2080      	movs	r0, #128	; 0x80
 800339c:	f7fd fd34 	bl	8000e08 <HAL_GPIO_EXTI_IRQHandler>
 80033a0:	bd10      	pop	{r4, pc}
	...

080033a4 <TIM1_BRK_UP_TRG_COM_IRQHandler>:
 80033a4:	b510      	push	{r4, lr}
 80033a6:	4802      	ldr	r0, [pc, #8]	; (80033b0 <TIM1_BRK_UP_TRG_COM_IRQHandler+0xc>)
 80033a8:	f7fe fa9c 	bl	80018e4 <HAL_TIM_IRQHandler>
 80033ac:	bd10      	pop	{r4, pc}
 80033ae:	46c0      	nop			; (mov r8, r8)
 80033b0:	2000024c 	.word	0x2000024c

080033b4 <TIM1_CC_IRQHandler>:
 80033b4:	b510      	push	{r4, lr}
 80033b6:	f7ff fff5 	bl	80033a4 <TIM1_BRK_UP_TRG_COM_IRQHandler>
 80033ba:	bd10      	pop	{r4, pc}

080033bc <SystemInit>:
 80033bc:	4770      	bx	lr
	...

080033c0 <Reset_Handler>:
 80033c0:	480d      	ldr	r0, [pc, #52]	; (80033f8 <LoopForever+0x2>)
 80033c2:	4685      	mov	sp, r0
 80033c4:	f7ff fffa 	bl	80033bc <SystemInit>
 80033c8:	480c      	ldr	r0, [pc, #48]	; (80033fc <LoopForever+0x6>)
 80033ca:	490d      	ldr	r1, [pc, #52]	; (8003400 <LoopForever+0xa>)
 80033cc:	4a0d      	ldr	r2, [pc, #52]	; (8003404 <LoopForever+0xe>)
 80033ce:	2300      	movs	r3, #0
 80033d0:	e002      	b.n	80033d8 <LoopCopyDataInit>

080033d2 <CopyDataInit>:
 80033d2:	58d4      	ldr	r4, [r2, r3]
 80033d4:	50c4      	str	r4, [r0, r3]
 80033d6:	3304      	adds	r3, #4

080033d8 <LoopCopyDataInit>:
 80033d8:	18c4      	adds	r4, r0, r3
 80033da:	428c      	cmp	r4, r1
 80033dc:	d3f9      	bcc.n	80033d2 <CopyDataInit>
 80033de:	4a0a      	ldr	r2, [pc, #40]	; (8003408 <LoopForever+0x12>)
 80033e0:	4c0a      	ldr	r4, [pc, #40]	; (800340c <LoopForever+0x16>)
 80033e2:	2300      	movs	r3, #0
 80033e4:	e001      	b.n	80033ea <LoopFillZerobss>

080033e6 <FillZerobss>:
 80033e6:	6013      	str	r3, [r2, #0]
 80033e8:	3204      	adds	r2, #4

080033ea <LoopFillZerobss>:
 80033ea:	42a2      	cmp	r2, r4
 80033ec:	d3fb      	bcc.n	80033e6 <FillZerobss>
 80033ee:	f000 f811 	bl	8003414 <__libc_init_array>
 80033f2:	f7ff faef 	bl	80029d4 <main>

080033f6 <LoopForever>:
 80033f6:	e7fe      	b.n	80033f6 <LoopForever>
 80033f8:	20009000 	.word	0x20009000
 80033fc:	20000000 	.word	0x20000000
 8003400:	20000010 	.word	0x20000010
 8003404:	08003594 	.word	0x08003594
 8003408:	20000010 	.word	0x20000010
 800340c:	20000328 	.word	0x20000328

08003410 <ADC1_COMP_IRQHandler>:
 8003410:	e7fe      	b.n	8003410 <ADC1_COMP_IRQHandler>
	...

08003414 <__libc_init_array>:
 8003414:	b570      	push	{r4, r5, r6, lr}
 8003416:	2600      	movs	r6, #0
 8003418:	4d0c      	ldr	r5, [pc, #48]	; (800344c <__libc_init_array+0x38>)
 800341a:	4c0d      	ldr	r4, [pc, #52]	; (8003450 <__libc_init_array+0x3c>)
 800341c:	1b64      	subs	r4, r4, r5
 800341e:	10a4      	asrs	r4, r4, #2
 8003420:	42a6      	cmp	r6, r4
 8003422:	d109      	bne.n	8003438 <__libc_init_array+0x24>
 8003424:	2600      	movs	r6, #0
 8003426:	f000 f82b 	bl	8003480 <_init>
 800342a:	4d0a      	ldr	r5, [pc, #40]	; (8003454 <__libc_init_array+0x40>)
 800342c:	4c0a      	ldr	r4, [pc, #40]	; (8003458 <__libc_init_array+0x44>)
 800342e:	1b64      	subs	r4, r4, r5
 8003430:	10a4      	asrs	r4, r4, #2
 8003432:	42a6      	cmp	r6, r4
 8003434:	d105      	bne.n	8003442 <__libc_init_array+0x2e>
 8003436:	bd70      	pop	{r4, r5, r6, pc}
 8003438:	00b3      	lsls	r3, r6, #2
 800343a:	58eb      	ldr	r3, [r5, r3]
 800343c:	4798      	blx	r3
 800343e:	3601      	adds	r6, #1
 8003440:	e7ee      	b.n	8003420 <__libc_init_array+0xc>
 8003442:	00b3      	lsls	r3, r6, #2
 8003444:	58eb      	ldr	r3, [r5, r3]
 8003446:	4798      	blx	r3
 8003448:	3601      	adds	r6, #1
 800344a:	e7f2      	b.n	8003432 <__libc_init_array+0x1e>
 800344c:	0800358c 	.word	0x0800358c
 8003450:	0800358c 	.word	0x0800358c
 8003454:	0800358c 	.word	0x0800358c
 8003458:	08003590 	.word	0x08003590

0800345c <memcpy>:
 800345c:	2300      	movs	r3, #0
 800345e:	b510      	push	{r4, lr}
 8003460:	429a      	cmp	r2, r3
 8003462:	d100      	bne.n	8003466 <memcpy+0xa>
 8003464:	bd10      	pop	{r4, pc}
 8003466:	5ccc      	ldrb	r4, [r1, r3]
 8003468:	54c4      	strb	r4, [r0, r3]
 800346a:	3301      	adds	r3, #1
 800346c:	e7f8      	b.n	8003460 <memcpy+0x4>

0800346e <memset>:
 800346e:	0003      	movs	r3, r0
 8003470:	1882      	adds	r2, r0, r2
 8003472:	4293      	cmp	r3, r2
 8003474:	d100      	bne.n	8003478 <memset+0xa>
 8003476:	4770      	bx	lr
 8003478:	7019      	strb	r1, [r3, #0]
 800347a:	3301      	adds	r3, #1
 800347c:	e7f9      	b.n	8003472 <memset+0x4>
	...

08003480 <_init>:
 8003480:	b5f8      	push	{r3, r4, r5, r6, r7, lr}
 8003482:	46c0      	nop			; (mov r8, r8)
 8003484:	bcf8      	pop	{r3, r4, r5, r6, r7}
 8003486:	bc08      	pop	{r3}
 8003488:	469e      	mov	lr, r3
 800348a:	4770      	bx	lr

0800348c <_fini>:
 800348c:	b5f8      	push	{r3, r4, r5, r6, r7, lr}
 800348e:	46c0      	nop			; (mov r8, r8)
 8003490:	bcf8      	pop	{r3, r4, r5, r6, r7}
 8003492:	bc08      	pop	{r3}
 8003494:	469e      	mov	lr, r3
 8003496:	4770      	bx	lr
